
mnist:     file format elf32-littleriscv


Disassembly of section .text:

00010094 <exit>:
   10094:	1141                	add	sp,sp,-16
   10096:	c422                	sw	s0,8(sp)
   10098:	c606                	sw	ra,12(sp)
   1009a:	00000793          	li	a5,0
   1009e:	842a                	mv	s0,a0
   100a0:	c791                	beqz	a5,100ac <exit+0x18>
   100a2:	4581                	li	a1,0
   100a4:	00000097          	auipc	ra,0x0
   100a8:	000000e7          	jalr	zero # 0 <exit-0x10094>
   100ac:	ab41a503          	lw	a0,-1356(gp) # 242c0 <_global_impure_ptr>
   100b0:	551c                	lw	a5,40(a0)
   100b2:	c391                	beqz	a5,100b6 <exit+0x22>
   100b4:	9782                	jalr	a5
   100b6:	8522                	mv	a0,s0
   100b8:	79d010ef          	jal	12054 <_exit>

000100bc <main>:
    return (nbPredictions > 0)
        ? nbValidPredictions : 0;
}


int main(int argc, char* argv[]) {
   100bc:	da010113          	add	sp,sp,-608

    Target_T expectedOutputBuffer[OUTPUTS_SIZE[0]];
    Target_T predictedOutputBuffer[OUTPUTS_SIZE[0]];
    UDATA_T output_value;

    readStimulus(inputBuffer, expectedOutputBuffer);
   100c0:	00810593          	add	a1,sp,8
   100c4:	01010513          	add	a0,sp,16
int main(int argc, char* argv[]) {
   100c8:	24112e23          	sw	ra,604(sp)
   100cc:	24812c23          	sw	s0,600(sp)
    readStimulus(inputBuffer, expectedOutputBuffer);
   100d0:	750000ef          	jal	10820 <readStimulus>
//    instret = -read_csr(minstret);
//    cycles = -read_csr(mcycle);
    const int success = processInput(inputBuffer, 
   100d4:	00710693          	add	a3,sp,7
   100d8:	00c10613          	add	a2,sp,12
   100dc:	00810593          	add	a1,sp,8
   100e0:	01010513          	add	a0,sp,16
   100e4:	758000ef          	jal	1083c <processInput>
                                                        predictedOutputBuffer,
							&output_value);
//    instret += read_csr(minstret);
//    cycles += read_csr(mcycle);
    
    printf("Expected  = %d\n", expectedOutputBuffer[0]);
   100e8:	00812583          	lw	a1,8(sp)
    const int success = processInput(inputBuffer, 
   100ec:	00050413          	mv	s0,a0
    printf("Expected  = %d\n", expectedOutputBuffer[0]);
   100f0:	00023537          	lui	a0,0x23
   100f4:	37c50513          	add	a0,a0,892 # 2337c <conv2_weights+0x26a0>
   100f8:	059000ef          	jal	10950 <iprintf>
    printf("Predicted = %d\n", predictedOutputBuffer[0]);
   100fc:	00c12583          	lw	a1,12(sp)
   10100:	00023537          	lui	a0,0x23
   10104:	38c50513          	add	a0,a0,908 # 2338c <conv2_weights+0x26b0>
   10108:	049000ef          	jal	10950 <iprintf>
    printf("Result : %d/1\n", success);
   1010c:	00023537          	lui	a0,0x23
   10110:	00040593          	mv	a1,s0
   10114:	39c50513          	add	a0,a0,924 # 2339c <conv2_weights+0x26c0>
   10118:	039000ef          	jal	10950 <iprintf>
    printf("credence: %d\n", output_value);
   1011c:	00714583          	lbu	a1,7(sp)
   10120:	00023537          	lui	a0,0x23
   10124:	3ac50513          	add	a0,a0,940 # 233ac <conv2_weights+0x26d0>
   10128:	029000ef          	jal	10950 <iprintf>
    printf("image %s: %d instructions\n", stringify(MNIST_INPUT_IMAGE), (int)(instret));
   1012c:	00023437          	lui	s0,0x23
   10130:	00023537          	lui	a0,0x23
   10134:	3bc40593          	add	a1,s0,956 # 233bc <conv2_weights+0x26e0>
   10138:	00000613          	li	a2,0
   1013c:	3c450513          	add	a0,a0,964 # 233c4 <conv2_weights+0x26e8>
   10140:	011000ef          	jal	10950 <iprintf>
    printf("image %s: %d cycles\n", stringify(MNIST_INPUT_IMAGE), (int)(cycles));
   10144:	00023537          	lui	a0,0x23
   10148:	3bc40593          	add	a1,s0,956
   1014c:	00000613          	li	a2,0
   10150:	3e050513          	add	a0,a0,992 # 233e0 <conv2_weights+0x2704>
   10154:	7fc000ef          	jal	10950 <iprintf>
            "Could not create file:  success_rate.txt");
    }
    fprintf(f, "%f", successRate);
    fclose(f);
#endif
}
   10158:	25c12083          	lw	ra,604(sp)
   1015c:	25812403          	lw	s0,600(sp)
   10160:	00000513          	li	a0,0
   10164:	26010113          	add	sp,sp,608
   10168:	00008067          	ret

0001016c <_start>:
   1016c:	00014197          	auipc	gp,0x14
   10170:	6a018193          	add	gp,gp,1696 # 2480c <__global_pointer$>
   10174:	ac018513          	add	a0,gp,-1344 # 242cc <mnist_input_idx>
   10178:	36018613          	add	a2,gp,864 # 24b6c <__BSS_END__>
   1017c:	8e09                	sub	a2,a2,a0
   1017e:	4581                	li	a1,0
   10180:	788000ef          	jal	10908 <memset>
   10184:	00000513          	li	a0,0
   10188:	c519                	beqz	a0,10196 <_start+0x2a>
   1018a:	00000513          	li	a0,0
   1018e:	00000097          	auipc	ra,0x0
   10192:	000000e7          	jalr	zero # 0 <exit-0x10094>
   10196:	2ddd                	jal	1088c <__libc_init_array>
   10198:	4502                	lw	a0,0(sp)
   1019a:	004c                	add	a1,sp,4
   1019c:	4601                	li	a2,0
   1019e:	3f39                	jal	100bc <main>
   101a0:	bdd5                	j	10094 <exit>

000101a2 <__do_global_dtors_aux>:
   101a2:	1141                	add	sp,sp,-16
   101a4:	c422                	sw	s0,8(sp)
   101a6:	ad41c783          	lbu	a5,-1324(gp) # 242e0 <completed.1>
   101aa:	c606                	sw	ra,12(sp)
   101ac:	ef99                	bnez	a5,101ca <__do_global_dtors_aux+0x28>
   101ae:	00000793          	li	a5,0
   101b2:	cb89                	beqz	a5,101c4 <__do_global_dtors_aux+0x22>
   101b4:	00024537          	lui	a0,0x24
   101b8:	00050513          	mv	a0,a0
   101bc:	00000097          	auipc	ra,0x0
   101c0:	000000e7          	jalr	zero # 0 <exit-0x10094>
   101c4:	4785                	li	a5,1
   101c6:	acf18a23          	sb	a5,-1324(gp) # 242e0 <completed.1>
   101ca:	40b2                	lw	ra,12(sp)
   101cc:	4422                	lw	s0,8(sp)
   101ce:	0141                	add	sp,sp,16
   101d0:	8082                	ret

000101d2 <frame_dummy>:
   101d2:	00000793          	li	a5,0
   101d6:	cb99                	beqz	a5,101ec <frame_dummy+0x1a>
   101d8:	00024537          	lui	a0,0x24
   101dc:	ad818593          	add	a1,gp,-1320 # 242e4 <object.0>
   101e0:	00050513          	mv	a0,a0
   101e4:	00000317          	auipc	t1,0x0
   101e8:	00000067          	jr	zero # 0 <exit-0x10094>
   101ec:	8082                	ret
	...

000101f0 <macsOnRange>:
static void macsOnRange(const UDATA_T* __restrict inputs,
                        const WDATA_T* __restrict weights,
                        SUM_T* __restrict weightedSum,
                        int nb_iterations)
{
    for (int iter = 0; iter < nb_iterations; ++iter) {
   101f0:	02d05663          	blez	a3,1021c <macsOnRange+0x2c>
   101f4:	00062703          	lw	a4,0(a2)
   101f8:	00d506b3          	add	a3,a0,a3
        *weightedSum += inputs[iter] * weights[iter];
   101fc:	00054783          	lbu	a5,0(a0) # 24000 <__EH_FRAME_BEGIN__>
   10200:	00058803          	lb	a6,0(a1)
    for (int iter = 0; iter < nb_iterations; ++iter) {
   10204:	00150513          	add	a0,a0,1
   10208:	00158593          	add	a1,a1,1
        *weightedSum += inputs[iter] * weights[iter];
   1020c:	030787b3          	mul	a5,a5,a6
   10210:	00f70733          	add	a4,a4,a5
    for (int iter = 0; iter < nb_iterations; ++iter) {
   10214:	fea694e3          	bne	a3,a0,101fc <macsOnRange+0xc>
   10218:	00e62023          	sw	a4,0(a2)
    }
}
   1021c:	00008067          	ret

00010220 <propagate>:
        }
    }
}

void propagate(const UDATA_T* inputs, Target_T* outputs, UDATA_T* maxPropagate_val)
{
   10220:	f9010113          	add	sp,sp,-112
   10224:	06812423          	sw	s0,104(sp)
   10228:	07212023          	sw	s2,96(sp)
   1022c:	05712623          	sw	s7,76(sp)
   10230:	03b12e23          	sw	s11,60(sp)
   10234:	fffff337          	lui	t1,0xfffff
   10238:	00000d93          	li	s11,0
   1023c:	00012437          	lui	s0,0x12
   10240:	00024937          	lui	s2,0x24
   10244:	00012bb7          	lui	s7,0x12
   10248:	05312e23          	sw	s3,92(sp)
   1024c:	05a12023          	sw	s10,64(sp)
   10250:	06112623          	sw	ra,108(sp)
   10254:	06912223          	sw	s1,100(sp)
   10258:	05412c23          	sw	s4,88(sp)
   1025c:	05512a23          	sw	s5,84(sp)
   10260:	05612823          	sw	s6,80(sp)
   10264:	05812423          	sw	s8,72(sp)
   10268:	05912223          	sw	s9,68(sp)
   1026c:	00b12023          	sw	a1,0(sp)
   10270:	00c12223          	sw	a2,4(sp)
   10274:	1e040413          	add	s0,s0,480 # 121e0 <conv1_biases>
   10278:	2fc90913          	add	s2,s2,764 # 242fc <mem>
   1027c:	220b8b93          	add	s7,s7,544 # 12220 <conv1_weights>
   10280:	79030313          	add	t1,t1,1936 # fffff790 <__BSS_END__+0xfffdac24>
        for (int ox = 0; ox < OUTPUTS_WIDTH; ++ox) {
   10284:	01600993          	li	s3,22
   10288:	000d8813          	mv	a6,s11
   1028c:	00050d13          	mv	s10,a0
   10290:	00481a13          	sll	s4,a6,0x4
   10294:	00000c13          	li	s8,0
            for (int output = 0; output < NB_OUTPUTS; ++output) {
   10298:	630a2713          	slti	a4,s4,1584
   1029c:	006a06b3          	add	a3,s4,t1
   102a0:	00040c93          	mv	s9,s0
   102a4:	000a0793          	mv	a5,s4
   102a8:	00071463          	bnez	a4,102b0 <propagate+0x90>
   102ac:	00068793          	mv	a5,a3
   102b0:	24078793          	add	a5,a5,576
   102b4:	00f904b3          	add	s1,s2,a5
   102b8:	018d0e33          	add	t3,s10,s8
   102bc:	000b8793          	mv	a5,s7
                SUM_T weightedSum = biasses[output];
   102c0:	000ca703          	lw	a4,0(s9)
   102c4:	00078b13          	mv	s6,a5
   102c8:	000e0513          	mv	a0,t3
   102cc:	02e12623          	sw	a4,44(sp)
                for (int sy = 0; sy < KERNEL_HEIGHT; ++sy) {
   102d0:	01078a93          	add	s5,a5,16
                        macsOnRange(
   102d4:	000b0593          	mv	a1,s6
   102d8:	00400693          	li	a3,4
   102dc:	02c10613          	add	a2,sp,44
   102e0:	00612a23          	sw	t1,20(sp)
   102e4:	01012823          	sw	a6,16(sp)
   102e8:	01c12623          	sw	t3,12(sp)
   102ec:	00a12423          	sw	a0,8(sp)
   102f0:	f01ff0ef          	jal	101f0 <macsOnRange>
                for (int sy = 0; sy < KERNEL_HEIGHT; ++sy) {
   102f4:	00812503          	lw	a0,8(sp)
   102f8:	004b0b13          	add	s6,s6,4
   102fc:	00c12e03          	lw	t3,12(sp)
   10300:	01012803          	lw	a6,16(sp)
   10304:	01412303          	lw	t1,20(sp)
   10308:	01850513          	add	a0,a0,24
   1030c:	0ff00893          	li	a7,255
   10310:	fd5b12e3          	bne	s6,s5,102d4 <propagate+0xb4>
                    = sat(weightedSum, output, ACTIVATION, rescaling);
   10314:	02c12703          	lw	a4,44(sp)
            if(weightedSum <= 0) weightedSum = 0;
   10318:	00000793          	li	a5,0
   1031c:	00e05a63          	blez	a4,10330 <propagate+0x110>
    return saturate(weightedSum>>shift, NB_BITS);
   10320:	40875793          	sra	a5,a4,0x8
    else if(v > hi) {
   10324:	00f8d463          	bge	a7,a5,1032c <propagate+0x10c>
   10328:	0ff00793          	li	a5,255
    return clamp(value, (SUM_T)(0), ((SUM_T)(1) << sat) - 1);
   1032c:	0ff7f793          	zext.b	a5,a5
                    = sat(weightedSum, output, ACTIVATION, rescaling);
   10330:	00f48023          	sb	a5,0(s1)
            for (int output = 0; output < NB_OUTPUTS; ++output) {
   10334:	004c8c93          	add	s9,s9,4
   10338:	00148493          	add	s1,s1,1
   1033c:	017c8663          	beq	s9,s7,10348 <propagate+0x128>
   10340:	000a8793          	mv	a5,s5
   10344:	f7dff06f          	j	102c0 <propagate+0xa0>
        for (int ox = 0; ox < OUTPUTS_WIDTH; ++ox) {
   10348:	002c0c13          	add	s8,s8,2
   1034c:	010a0a13          	add	s4,s4,16
   10350:	f53c14e3          	bne	s8,s3,10298 <propagate+0x78>
    for (int oy = 0; oy < OUTPUTS_HEIGHT; ++oy) {
   10354:	018d8d93          	add	s11,s11,24
   10358:	10800793          	li	a5,264
   1035c:	030d0d13          	add	s10,s10,48
   10360:	00b80813          	add	a6,a6,11
   10364:	f2fd96e3          	bne	s11,a5,10290 <propagate+0x70>
                        iOffset += INPUT_MEM_WRAP_OFFSET - INPUT_MEM_CONT_OFFSET
   10368:	fffff9b7          	lui	s3,0xfffff
   1036c:	79098993          	add	s3,s3,1936 # fffff790 <__BSS_END__+0xfffdac24>
   10370:	00000793          	li	a5,0
   10374:	00000b93          	li	s7,0
   10378:	000248b7          	lui	a7,0x24
   1037c:	00012d37          	lui	s10,0x12
   10380:	00021cb7          	lui	s9,0x21
    else if(v > hi) {
   10384:	00098313          	mv	t1,s3
   10388:	00000c13          	li	s8,0
   1038c:	53c88893          	add	a7,a7,1340 # 2453c <mem+0x240>
   10390:	320d0d13          	add	s10,s10,800 # 12320 <conv2_biases>
   10394:	cdcc8c93          	add	s9,s9,-804 # 20cdc <conv2_weights>
                        && iOffset >= INPUT_MEM_CONT_SIZE)
   10398:	62f00e13          	li	t3,1583
    else if(v > hi) {
   1039c:	0ff00493          	li	s1,255
   103a0:	00078d93          	mv	s11,a5
   103a4:	000b8993          	mv	s3,s7
        for (int ox = 0; ox < OUTPUTS_WIDTH; ++ox) {
   103a8:	00098613          	mv	a2,s3
   103ac:	005c1b13          	sll	s6,s8,0x5
   103b0:	000d8a93          	mv	s5,s11
   103b4:	00000a13          	li	s4,0
   103b8:	000c0693          	mv	a3,s8
   103bc:	000d8993          	mv	s3,s11
            for (int output = 0; output < NB_OUTPUTS; ++output) {
   103c0:	01590db3          	add	s11,s2,s5
   103c4:	000a8f13          	mv	t5,s5
   103c8:	000a0f93          	mv	t6,s4
   103cc:	00098813          	mv	a6,s3
   103d0:	000c8a93          	mv	s5,s9
   103d4:	000d0c13          	mv	s8,s10
   103d8:	000d8a13          	mv	s4,s11
                SUM_T weightedSum = biasses[output];
   103dc:	000c2703          	lw	a4,0(s8)
   103e0:	000a8993          	mv	s3,s5
   103e4:	000b0b93          	mv	s7,s6
                for (int sy = 0; sy < KERNEL_HEIGHT; ++sy) {
   103e8:	01612423          	sw	s6,8(sp)
   103ec:	01412623          	sw	s4,12(sp)
   103f0:	01512823          	sw	s5,16(sp)
                SUM_T weightedSum = biasses[output];
   103f4:	02e12623          	sw	a4,44(sp)
                for (int sy = 0; sy < KERNEL_HEIGHT; ++sy) {
   103f8:	00000d93          	li	s11,0
   103fc:	00068b13          	mv	s6,a3
   10400:	00080a93          	mv	s5,a6
   10404:	00c12a23          	sw	a2,20(sp)
   10408:	00030a13          	mv	s4,t1
                        macsOnRange(
   1040c:	05000693          	li	a3,80
   10410:	02c10613          	add	a2,sp,44
   10414:	00098593          	mv	a1,s3
                    int iOffset = INPUT_MEM_STRIDE * iPos;
   10418:	000b8513          	mv	a0,s7
                        && iOffset >= INPUT_MEM_CONT_SIZE)
   1041c:	017e5463          	bge	t3,s7,10424 <propagate+0x204>
                        iOffset += INPUT_MEM_WRAP_OFFSET - INPUT_MEM_CONT_OFFSET
   10420:	014b8533          	add	a0,s7,s4
                        macsOnRange(
   10424:	00a88533          	add	a0,a7,a0
   10428:	01f12e23          	sw	t6,28(sp)
   1042c:	01e12c23          	sw	t5,24(sp)
   10430:	dc1ff0ef          	jal	101f0 <macsOnRange>
                for (int sy = 0; sy < KERNEL_HEIGHT; ++sy) {
   10434:	000247b7          	lui	a5,0x24
   10438:	53c78893          	add	a7,a5,1340 # 2453c <mem+0x240>
   1043c:	000127b7          	lui	a5,0x12
   10440:	38078e93          	add	t4,a5,896 # 12380 <fc1_biases>
   10444:	001d8d93          	add	s11,s11,1
   10448:	00500793          	li	a5,5
   1044c:	01812f03          	lw	t5,24(sp)
   10450:	01c12f83          	lw	t6,28(sp)
   10454:	0b0b8b93          	add	s7,s7,176
   10458:	05098993          	add	s3,s3,80
   1045c:	62f00e13          	li	t3,1583
   10460:	fafd96e3          	bne	s11,a5,1040c <propagate+0x1ec>
                    = sat(weightedSum, output, ACTIVATION, rescaling);
   10464:	02c12583          	lw	a1,44(sp)
   10468:	000a8813          	mv	a6,s5
   1046c:	000b0693          	mv	a3,s6
   10470:	000a0313          	mv	t1,s4
   10474:	00812b03          	lw	s6,8(sp)
   10478:	01012a83          	lw	s5,16(sp)
   1047c:	01412603          	lw	a2,20(sp)
   10480:	00c12a03          	lw	s4,12(sp)
            if(weightedSum <= 0) weightedSum = 0;
   10484:	00000713          	li	a4,0
   10488:	00b05a63          	blez	a1,1049c <propagate+0x27c>
    return saturate(weightedSum>>shift, NB_BITS);
   1048c:	4085d713          	sra	a4,a1,0x8
    else if(v > hi) {
   10490:	00e4d463          	bge	s1,a4,10498 <propagate+0x278>
   10494:	0ff00713          	li	a4,255
    return clamp(value, (SUM_T)(0), ((SUM_T)(1) << sat) - 1);
   10498:	0ff77713          	zext.b	a4,a4
                    = sat(weightedSum, output, ACTIVATION, rescaling);
   1049c:	16ea0023          	sb	a4,352(s4)
            for (int output = 0; output < NB_OUTPUTS; ++output) {
   104a0:	004c0c13          	add	s8,s8,4
   104a4:	001a0a13          	add	s4,s4,1
   104a8:	190a8a93          	add	s5,s5,400
   104ac:	f3dc18e3          	bne	s8,t4,103dc <propagate+0x1bc>
        for (int ox = 0; ox < OUTPUTS_WIDTH; ++ox) {
   104b0:	002f8a13          	add	s4,t6,2
   104b4:	00800713          	li	a4,8
   104b8:	00080993          	mv	s3,a6
   104bc:	018f0a93          	add	s5,t5,24
   104c0:	020b0b13          	add	s6,s6,32
   104c4:	eeea1ee3          	bne	s4,a4,103c0 <propagate+0x1a0>
    for (int oy = 0; oy < OUTPUTS_HEIGHT; ++oy) {
   104c8:	00260993          	add	s3,a2,2
   104cc:	00b68c13          	add	s8,a3,11
   104d0:	06080d93          	add	s11,a6,96
   104d4:	ed499ae3          	bne	s3,s4,103a8 <propagate+0x188>
   104d8:	00013db7          	lui	s11,0x13
   104dc:	00024b37          	lui	s6,0x24
   104e0:	1a040993          	add	s3,s0,416
   104e4:	dd018b93          	add	s7,gp,-560 # 245dc <mem+0x2e0>
   104e8:	dd018493          	add	s1,gp,-560 # 245dc <mem+0x2e0>
   104ec:	bdcd8d93          	add	s11,s11,-1060 # 12bdc <fc1_weights>
   104f0:	3f840c93          	add	s9,s0,1016
   104f4:	45cb0b13          	add	s6,s6,1116 # 2445c <mem+0x160>
    else if(v > hi) {
   104f8:	0ff00c13          	li	s8,255
        SUM_T weightedSum = biasses[och];
   104fc:	0009a783          	lw	a5,0(s3)
   10500:	000b0a13          	mv	s4,s6
   10504:	000d8d13          	mv	s10,s11
   10508:	02f12623          	sw	a5,44(sp)
                macsOnRange(
   1050c:	000d0593          	mv	a1,s10
   10510:	000a0513          	mv	a0,s4
   10514:	06000693          	li	a3,96
   10518:	02c10613          	add	a2,sp,44
        for (int iy = 0; iy < CHANNELS_HEIGHT; ++iy) {
   1051c:	060a0a13          	add	s4,s4,96
                macsOnRange(
   10520:	cd1ff0ef          	jal	101f0 <macsOnRange>
        for (int iy = 0; iy < CHANNELS_HEIGHT; ++iy) {
   10524:	060d0d13          	add	s10,s10,96
   10528:	ff4b92e3          	bne	s7,s4,1050c <propagate+0x2ec>
        outputs[och] = sat(weightedSum, och, ACTIVATION, rescaling);
   1052c:	02c12703          	lw	a4,44(sp)
            if(weightedSum <= 0) weightedSum = 0;
   10530:	00000793          	li	a5,0
   10534:	00e05a63          	blez	a4,10548 <propagate+0x328>
    return saturate(weightedSum>>shift, NB_BITS);
   10538:	40875793          	sra	a5,a4,0x8
    else if(v > hi) {
   1053c:	00fc5463          	bge	s8,a5,10544 <propagate+0x324>
   10540:	0ff00793          	li	a5,255
    return clamp(value, (SUM_T)(0), ((SUM_T)(1) << sat) - 1);
   10544:	0ff7f793          	zext.b	a5,a5
        outputs[och] = sat(weightedSum, och, ACTIVATION, rescaling);
   10548:	00f48023          	sb	a5,0(s1)
    for (int och = 0; och < NB_OUTPUTS; och++) {
   1054c:	00498993          	add	s3,s3,4
   10550:	00148493          	add	s1,s1,1
   10554:	180d8d93          	add	s11,s11,384
   10558:	fb3c92e3          	bne	s9,s3,104fc <propagate+0x2dc>
   1055c:	42040b13          	add	s6,s0,1056
   10560:	3f840413          	add	s0,s0,1016
   10564:	e6618a13          	add	s4,gp,-410 # 24672 <mem+0x376>
   10568:	000b0c13          	mv	s8,s6
    else if(v > hi) {
   1056c:	0ff00b93          	li	s7,255
   10570:	01c0006f          	j	1058c <propagate+0x36c>
   10574:	0ff00793          	li	a5,255
        outputs[och] = sat(weightedSum, och, ACTIVATION, rescaling);
   10578:	00fa0023          	sb	a5,0(s4)
    for (int och = 0; och < NB_OUTPUTS; och++) {
   1057c:	00440413          	add	s0,s0,4
   10580:	096b0b13          	add	s6,s6,150
   10584:	001a0a13          	add	s4,s4,1
   10588:	048c0663          	beq	s8,s0,105d4 <propagate+0x3b4>
        SUM_T weightedSum = biasses[och];
   1058c:	00042783          	lw	a5,0(s0)
                macsOnRange(
   10590:	09600693          	li	a3,150
   10594:	02c10613          	add	a2,sp,44
   10598:	000b0593          	mv	a1,s6
   1059c:	dd018513          	add	a0,gp,-560 # 245dc <mem+0x2e0>
        SUM_T weightedSum = biasses[och];
   105a0:	02f12623          	sw	a5,44(sp)
                macsOnRange(
   105a4:	c4dff0ef          	jal	101f0 <macsOnRange>
    return saturate(weightedSum>>shift, NB_BITS);
   105a8:	02c12783          	lw	a5,44(sp)
   105ac:	40b7d793          	sra	a5,a5,0xb
        outputs[och] = sat(weightedSum, och, ACTIVATION, rescaling);
   105b0:	fff7c713          	not	a4,a5
   105b4:	41f75713          	sra	a4,a4,0x1f
    else if(v > hi) {
   105b8:	fafbcee3          	blt	s7,a5,10574 <propagate+0x354>
        outputs[och] = sat(weightedSum, och, ACTIVATION, rescaling);
   105bc:	00e7f7b3          	and	a5,a5,a4
   105c0:	00fa0023          	sb	a5,0(s4)
    for (int och = 0; och < NB_OUTPUTS; och++) {
   105c4:	00440413          	add	s0,s0,4
   105c8:	096b0b13          	add	s6,s6,150
   105cc:	001a0a13          	add	s4,s4,1
   105d0:	fa8c1ee3          	bne	s8,s0,1058c <propagate+0x36c>
                for (int ch = 0; ch < NB_CHANNELS; ++ch) {
   105d4:	00000793          	li	a5,0
    DATA_T maxInput = SCHAR_MIN;
   105d8:	f8000713          	li	a4,-128
    int iMaxInput = 0;
   105dc:	00000693          	li	a3,0
                for (int ch = 0; ch < NB_CHANNELS; ++ch) {
   105e0:	00a00593          	li	a1,10
                    if (inputs[iOffset + ch] > maxInput) {
   105e4:	00f90633          	add	a2,s2,a5
   105e8:	37660603          	lb	a2,886(a2)
   105ec:	00c75663          	bge	a4,a2,105f8 <propagate+0x3d8>
                        iMaxInput = ch;
   105f0:	00078693          	mv	a3,a5
                        maxInput = inputs[iOffset + ch];
   105f4:	00060713          	mv	a4,a2
                for (int ch = 0; ch < NB_CHANNELS; ++ch) {
   105f8:	00178793          	add	a5,a5,1
   105fc:	feb794e3          	bne	a5,a1,105e4 <propagate+0x3c4>
                outputs[oPos] = (int32_t)(iMaxInput);
   10600:	00012783          	lw	a5,0(sp)
   10604:	00d7a023          	sw	a3,0(a5)
		*output_value = maxInput;
   10608:	00412783          	lw	a5,4(sp)
   1060c:	00e78023          	sb	a4,0(a5)
    FILE* max_stream = fopen("max_output.txt", "w");
    saveOutputs(FC2_NB_OUTPUTS, FC2_OUTPUTS_HEIGHT, FC2_OUTPUTS_WIDTH, FC2_MEM_CONT_OFFSET, FC2_MEM_CONT_SIZE, FC2_MEM_WRAP_OFFSET, FC2_MEM_WRAP_SIZE, FC2_MEM_STRIDE, outputs, max_stream, Network::Format::CHW);
    fclose(max_stream);
#endif

}
   10610:	06c12083          	lw	ra,108(sp)
   10614:	06812403          	lw	s0,104(sp)
   10618:	06412483          	lw	s1,100(sp)
   1061c:	06012903          	lw	s2,96(sp)
   10620:	05c12983          	lw	s3,92(sp)
   10624:	05812a03          	lw	s4,88(sp)
   10628:	05412a83          	lw	s5,84(sp)
   1062c:	05012b03          	lw	s6,80(sp)
   10630:	04c12b83          	lw	s7,76(sp)
   10634:	04812c03          	lw	s8,72(sp)
   10638:	04412c83          	lw	s9,68(sp)
   1063c:	04012d03          	lw	s10,64(sp)
   10640:	03c12d83          	lw	s11,60(sp)
   10644:	07010113          	add	sp,sp,112
   10648:	00008067          	ret

0001064c <read_mnist_input>:
    0x00};                                   
#endif

static int mnist_input_idx = 0;

static int read_mnist_input(void* dst, const size_t size, const size_t n) {
   1064c:	ff010113          	add	sp,sp,-16
   10650:	00812423          	sw	s0,8(sp)
   10654:	00060413          	mv	s0,a2
    if (mnist_input_idx+size*n <= sizeof(MNIST_INPUT_IMAGE)) {
   10658:	02c58633          	mul	a2,a1,a2
static int read_mnist_input(void* dst, const size_t size, const size_t n) {
   1065c:	01212023          	sw	s2,0(sp)
    if (mnist_input_idx+size*n <= sizeof(MNIST_INPUT_IMAGE)) {
   10660:	ac01a703          	lw	a4,-1344(gp) # 242cc <mnist_input_idx>
static int read_mnist_input(void* dst, const size_t size, const size_t n) {
   10664:	00912223          	sw	s1,4(sp)
   10668:	00112623          	sw	ra,12(sp)
    if (mnist_input_idx+size*n <= sizeof(MNIST_INPUT_IMAGE)) {
   1066c:	25100693          	li	a3,593
   10670:	00e604b3          	add	s1,a2,a4
   10674:	0296ec63          	bltu	a3,s1,106ac <read_mnist_input+0x60>
        if (dst){
   10678:	00050a63          	beqz	a0,1068c <read_mnist_input+0x40>
            memcpy(dst, (void*)(&MNIST_INPUT_IMAGE[mnist_input_idx]), size*n);
   1067c:	000245b7          	lui	a1,0x24
   10680:	00c58593          	add	a1,a1,12 # 2400c <env0003>
   10684:	00e585b3          	add	a1,a1,a4
   10688:	26a000ef          	jal	108f2 <memcpy>
            mnist_input_idx += size*n;
   1068c:	ac91a023          	sw	s1,-1344(gp) # 242cc <mnist_input_idx>
        } else {
            // if pointer is empty, we do not need to read, just increase the idx
            mnist_input_idx += size*n;
        }
        return n;
   10690:	00040513          	mv	a0,s0
    } else {
        printf("%s out of bounds %lu > %lu\n", __func__, mnist_input_idx+size*n, sizeof(MNIST_INPUT_IMAGE));
        return -1;
    }
}
   10694:	00c12083          	lw	ra,12(sp)
   10698:	00812403          	lw	s0,8(sp)
   1069c:	00412483          	lw	s1,4(sp)
   106a0:	00012903          	lw	s2,0(sp)
   106a4:	01010113          	add	sp,sp,16
   106a8:	00008067          	ret
        printf("%s out of bounds %lu > %lu\n", __func__, mnist_input_idx+size*n, sizeof(MNIST_INPUT_IMAGE));
   106ac:	000235b7          	lui	a1,0x23
   106b0:	00023537          	lui	a0,0x23
   106b4:	25100693          	li	a3,593
   106b8:	00048613          	mv	a2,s1
   106bc:	43458593          	add	a1,a1,1076 # 23434 <__func__.0>
   106c0:	25c50513          	add	a0,a0,604 # 2325c <conv2_weights+0x2580>
   106c4:	28c000ef          	jal	10950 <iprintf>
        return -1;
   106c8:	fff00513          	li	a0,-1
   106cc:	fc9ff06f          	j	10694 <read_mnist_input+0x48>

000106d0 <envRead>:
             unsigned int channelsHeight,
             unsigned int channelsWidth,
             DATA_T* data,
             unsigned int outputsSize,
             Target_T* outputTargets)
{
   106d0:	fd010113          	add	sp,sp,-48
   106d4:	02812423          	sw	s0,40(sp)
   106d8:	02912223          	sw	s1,36(sp)
   106dc:	01312e23          	sw	s3,28(sp)
   106e0:	00058493          	mv	s1,a1
   106e4:	00050993          	mv	s3,a0
    char header[2];
    read_mnist_input(header, sizeof(header[0]), 2);
   106e8:	00100593          	li	a1,1
{
   106ec:	00060413          	mv	s0,a2
    read_mnist_input(header, sizeof(header[0]), 2);
   106f0:	00c10513          	add	a0,sp,12
   106f4:	00200613          	li	a2,2
{
   106f8:	03212023          	sw	s2,32(sp)
   106fc:	01412c23          	sw	s4,24(sp)
   10700:	01512a23          	sw	s5,20(sp)
   10704:	02112623          	sw	ra,44(sp)
   10708:	00068a13          	mv	s4,a3
   1070c:	00070a93          	mv	s5,a4
   10710:	00078913          	mv	s2,a5
    read_mnist_input(header, sizeof(header[0]), 2);
   10714:	f39ff0ef          	jal	1064c <read_mnist_input>

    if (header[0] != 'P' || (header[1] != '5' && header[1] != '6')) {
   10718:	00c14803          	lbu	a6,12(sp)
   1071c:	05000593          	li	a1,80
   10720:	00b81c63          	bne	a6,a1,10738 <envRead+0x68>
   10724:	00d14803          	lbu	a6,13(sp)
   10728:	00100793          	li	a5,1
   1072c:	fcb80813          	add	a6,a6,-53
   10730:	0ff87813          	zext.b	a6,a6
   10734:	0307f863          	bgeu	a5,a6,10764 <envRead+0x94>
        printf("Unknown PGM file format\n");
   10738:	00023537          	lui	a0,0x23
   1073c:	27850513          	add	a0,a0,632 # 23278 <conv2_weights+0x259c>
    }

    if (!feof_mnist_input()) {
        printf("EOF not reached, File error !!\n");
    }
}
   10740:	02812403          	lw	s0,40(sp)
   10744:	02c12083          	lw	ra,44(sp)
   10748:	02412483          	lw	s1,36(sp)
   1074c:	02012903          	lw	s2,32(sp)
   10750:	01c12983          	lw	s3,28(sp)
   10754:	01812a03          	lw	s4,24(sp)
   10758:	01412a83          	lw	s5,20(sp)
   1075c:	03010113          	add	sp,sp,48
        printf("EOF not reached, File error !!\n");
   10760:	30c0006f          	j	10a6c <puts>
    read_mnist_input(NULL, sizeof(char), 11);
   10764:	00b00613          	li	a2,11
   10768:	00100593          	li	a1,1
   1076c:	00000513          	li	a0,0
   10770:	eddff0ef          	jal	1064c <read_mnist_input>
    if (pixelWidth != (int)channelsWidth || pixelHeight != (int)channelsHeight)
   10774:	01800793          	li	a5,24
   10778:	06f41063          	bne	s0,a5,107d8 <envRead+0x108>
   1077c:	04849e63          	bne	s1,s0,107d8 <envRead+0x108>
    nbRead = read_mnist_input(data, sizeof(data[0]), size);
   10780:	00098613          	mv	a2,s3
   10784:	00100593          	li	a1,1
   10788:	000a0513          	mv	a0,s4
   1078c:	ec1ff0ef          	jal	1064c <read_mnist_input>
    if (nbRead != size) {
   10790:	06a99663          	bne	s3,a0,107fc <envRead+0x12c>
    nbRead = read_mnist_input(outputTargets, sizeof(outputTargets[0]), outputsSize);
   10794:	000a8613          	mv	a2,s5
   10798:	00400593          	li	a1,4
   1079c:	00090513          	mv	a0,s2
   107a0:	eadff0ef          	jal	1064c <read_mnist_input>
    if (nbRead != outputsSize) {
   107a4:	04aa9063          	bne	s5,a0,107e4 <envRead+0x114>
    if (!feof_mnist_input()) {
   107a8:	ac01a703          	lw	a4,-1344(gp) # 242cc <mnist_input_idx>
   107ac:	25100793          	li	a5,593
   107b0:	06f71263          	bne	a4,a5,10814 <envRead+0x144>
}
   107b4:	02c12083          	lw	ra,44(sp)
   107b8:	02812403          	lw	s0,40(sp)
   107bc:	02412483          	lw	s1,36(sp)
   107c0:	02012903          	lw	s2,32(sp)
   107c4:	01c12983          	lw	s3,28(sp)
   107c8:	01812a03          	lw	s4,24(sp)
   107cc:	01412a83          	lw	s5,20(sp)
   107d0:	03010113          	add	sp,sp,48
   107d4:	00008067          	ret
        printf("PGM image size does not match array size\n");
   107d8:	00023537          	lui	a0,0x23
   107dc:	29050513          	add	a0,a0,656 # 23290 <conv2_weights+0x25b4>
   107e0:	f61ff06f          	j	10740 <envRead+0x70>
        printf("fread() number of read objects (%lu) different than"
   107e4:	00050593          	mv	a1,a0
   107e8:	00023537          	lui	a0,0x23
   107ec:	000a8613          	mv	a2,s5
   107f0:	30850513          	add	a0,a0,776 # 23308 <conv2_weights+0x262c>
   107f4:	15c000ef          	jal	10950 <iprintf>
   107f8:	fb1ff06f          	j	107a8 <envRead+0xd8>
        printf("fread() number of read objects (%lu) different than"
   107fc:	00050593          	mv	a1,a0
   10800:	00023537          	lui	a0,0x23
   10804:	00098613          	mv	a2,s3
   10808:	2bc50513          	add	a0,a0,700 # 232bc <conv2_weights+0x25e0>
   1080c:	144000ef          	jal	10950 <iprintf>
   10810:	f85ff06f          	j	10794 <envRead+0xc4>
        printf("EOF not reached, File error !!\n");
   10814:	00023537          	lui	a0,0x23
   10818:	35c50513          	add	a0,a0,860 # 2335c <conv2_weights+0x2680>
   1081c:	f25ff06f          	j	10740 <envRead+0x70>

00010820 <readStimulus>:
{
   10820:	00050693          	mv	a3,a0
   10824:	00058793          	mv	a5,a1
    envRead(ENV_SIZE_Y*ENV_SIZE_X*ENV_NB_OUTPUTS,
   10828:	00100713          	li	a4,1
   1082c:	01800613          	li	a2,24
   10830:	01800593          	li	a1,24
   10834:	24000513          	li	a0,576
   10838:	e99ff06f          	j	106d0 <envRead>

0001083c <processInput>:
{
   1083c:	ff010113          	add	sp,sp,-16
   10840:	00812423          	sw	s0,8(sp)
   10844:	00060413          	mv	s0,a2
   10848:	00912223          	sw	s1,4(sp)
    propagate(inputBuffer, predictedOutputBuffer, output_value);
   1084c:	00068613          	mv	a2,a3
{
   10850:	00058493          	mv	s1,a1
    propagate(inputBuffer, predictedOutputBuffer, output_value);
   10854:	00040593          	mv	a1,s0
{
   10858:	00112623          	sw	ra,12(sp)
    propagate(inputBuffer, predictedOutputBuffer, output_value);
   1085c:	9c5ff0ef          	jal	10220 <propagate>
        if (expectedOutputBuffer[i] >= 0) {
   10860:	0004a783          	lw	a5,0(s1)
   10864:	00000513          	li	a0,0
   10868:	0007c863          	bltz	a5,10878 <processInput+0x3c>
            if(predictedOutputBuffer[i] == expectedOutputBuffer[i]) {
   1086c:	00042503          	lw	a0,0(s0)
   10870:	40f50533          	sub	a0,a0,a5
   10874:	00153513          	seqz	a0,a0
}
   10878:	00c12083          	lw	ra,12(sp)
   1087c:	00812403          	lw	s0,8(sp)
   10880:	00412483          	lw	s1,4(sp)
   10884:	01010113          	add	sp,sp,16
   10888:	00008067          	ret

0001088c <__libc_init_array>:
   1088c:	1141                	add	sp,sp,-16
   1088e:	c422                	sw	s0,8(sp)
   10890:	c226                	sw	s1,4(sp)
   10892:	00024437          	lui	s0,0x24
   10896:	000244b7          	lui	s1,0x24
   1089a:	00448793          	add	a5,s1,4 # 24004 <__frame_dummy_init_array_entry>
   1089e:	00440413          	add	s0,s0,4 # 24004 <__frame_dummy_init_array_entry>
   108a2:	8c1d                	sub	s0,s0,a5
   108a4:	c04a                	sw	s2,0(sp)
   108a6:	c606                	sw	ra,12(sp)
   108a8:	8409                	sra	s0,s0,0x2
   108aa:	00448493          	add	s1,s1,4
   108ae:	4901                	li	s2,0
   108b0:	02891763          	bne	s2,s0,108de <__libc_init_array+0x52>
   108b4:	000244b7          	lui	s1,0x24
   108b8:	00024437          	lui	s0,0x24
   108bc:	00448793          	add	a5,s1,4 # 24004 <__frame_dummy_init_array_entry>
   108c0:	00840413          	add	s0,s0,8 # 24008 <__do_global_dtors_aux_fini_array_entry>
   108c4:	8c1d                	sub	s0,s0,a5
   108c6:	8409                	sra	s0,s0,0x2
   108c8:	00448493          	add	s1,s1,4
   108cc:	4901                	li	s2,0
   108ce:	00891d63          	bne	s2,s0,108e8 <__libc_init_array+0x5c>
   108d2:	40b2                	lw	ra,12(sp)
   108d4:	4422                	lw	s0,8(sp)
   108d6:	4492                	lw	s1,4(sp)
   108d8:	4902                	lw	s2,0(sp)
   108da:	0141                	add	sp,sp,16
   108dc:	8082                	ret
   108de:	409c                	lw	a5,0(s1)
   108e0:	0905                	add	s2,s2,1
   108e2:	0491                	add	s1,s1,4
   108e4:	9782                	jalr	a5
   108e6:	b7e9                	j	108b0 <__libc_init_array+0x24>
   108e8:	409c                	lw	a5,0(s1)
   108ea:	0905                	add	s2,s2,1
   108ec:	0491                	add	s1,s1,4
   108ee:	9782                	jalr	a5
   108f0:	bff9                	j	108ce <__libc_init_array+0x42>

000108f2 <memcpy>:
   108f2:	832a                	mv	t1,a0
   108f4:	ca09                	beqz	a2,10906 <memcpy+0x14>
   108f6:	00058383          	lb	t2,0(a1)
   108fa:	00730023          	sb	t2,0(t1)
   108fe:	167d                	add	a2,a2,-1
   10900:	0305                	add	t1,t1,1
   10902:	0585                	add	a1,a1,1
   10904:	fa6d                	bnez	a2,108f6 <memcpy+0x4>
   10906:	8082                	ret

00010908 <memset>:
   10908:	832a                	mv	t1,a0
   1090a:	c611                	beqz	a2,10916 <memset+0xe>
   1090c:	00b30023          	sb	a1,0(t1)
   10910:	167d                	add	a2,a2,-1
   10912:	0305                	add	t1,t1,1
   10914:	fe65                	bnez	a2,1090c <memset+0x4>
   10916:	8082                	ret

00010918 <_iprintf_r>:
   10918:	7139                	add	sp,sp,-64
   1091a:	cc22                	sw	s0,24(sp)
   1091c:	ca26                	sw	s1,20(sp)
   1091e:	ce06                	sw	ra,28(sp)
   10920:	d432                	sw	a2,40(sp)
   10922:	d636                	sw	a3,44(sp)
   10924:	d83a                	sw	a4,48(sp)
   10926:	da3e                	sw	a5,52(sp)
   10928:	dc42                	sw	a6,56(sp)
   1092a:	de46                	sw	a7,60(sp)
   1092c:	842a                	mv	s0,a0
   1092e:	84ae                	mv	s1,a1
   10930:	c501                	beqz	a0,10938 <_iprintf_r+0x20>
   10932:	4d1c                	lw	a5,24(a0)
   10934:	e391                	bnez	a5,10938 <_iprintf_r+0x20>
   10936:	2b85                	jal	10ea6 <__sinit>
   10938:	440c                	lw	a1,8(s0)
   1093a:	1034                	add	a3,sp,40
   1093c:	8626                	mv	a2,s1
   1093e:	8522                	mv	a0,s0
   10940:	c636                	sw	a3,12(sp)
   10942:	255000ef          	jal	11396 <_vfiprintf_r>
   10946:	40f2                	lw	ra,28(sp)
   10948:	4462                	lw	s0,24(sp)
   1094a:	44d2                	lw	s1,20(sp)
   1094c:	6121                	add	sp,sp,64
   1094e:	8082                	ret

00010950 <iprintf>:
   10950:	715d                	add	sp,sp,-80
   10952:	c2be                	sw	a5,68(sp)
   10954:	d422                	sw	s0,40(sp)
   10956:	842a                	mv	s0,a0
   10958:	abc1a503          	lw	a0,-1348(gp) # 242c8 <_impure_ptr>
   1095c:	d606                	sw	ra,44(sp)
   1095e:	da2e                	sw	a1,52(sp)
   10960:	dc32                	sw	a2,56(sp)
   10962:	de36                	sw	a3,60(sp)
   10964:	c0ba                	sw	a4,64(sp)
   10966:	c4c2                	sw	a6,72(sp)
   10968:	c6c6                	sw	a7,76(sp)
   1096a:	c511                	beqz	a0,10976 <iprintf+0x26>
   1096c:	4d1c                	lw	a5,24(a0)
   1096e:	e781                	bnez	a5,10976 <iprintf+0x26>
   10970:	c62a                	sw	a0,12(sp)
   10972:	2b15                	jal	10ea6 <__sinit>
   10974:	4532                	lw	a0,12(sp)
   10976:	450c                	lw	a1,8(a0)
   10978:	1854                	add	a3,sp,52
   1097a:	8622                	mv	a2,s0
   1097c:	ce36                	sw	a3,28(sp)
   1097e:	219000ef          	jal	11396 <_vfiprintf_r>
   10982:	50b2                	lw	ra,44(sp)
   10984:	5422                	lw	s0,40(sp)
   10986:	6161                	add	sp,sp,80
   10988:	8082                	ret

0001098a <_puts_r>:
   1098a:	1101                	add	sp,sp,-32
   1098c:	ca26                	sw	s1,20(sp)
   1098e:	ce06                	sw	ra,28(sp)
   10990:	cc22                	sw	s0,24(sp)
   10992:	c84a                	sw	s2,16(sp)
   10994:	c64e                	sw	s3,12(sp)
   10996:	c452                	sw	s4,8(sp)
   10998:	84aa                	mv	s1,a0
   1099a:	c531                	beqz	a0,109e6 <_puts_r+0x5c>
   1099c:	4d1c                	lw	a5,24(a0)
   1099e:	892e                	mv	s2,a1
   109a0:	cf85                	beqz	a5,109d8 <_puts_r+0x4e>
   109a2:	4500                	lw	s0,8(a0)
   109a4:	000237b7          	lui	a5,0x23
   109a8:	48878793          	add	a5,a5,1160 # 23488 <__sf_fake_stdin>
   109ac:	02f41f63          	bne	s0,a5,109ea <_puts_r+0x60>
   109b0:	40c0                	lw	s0,4(s1)
   109b2:	00c45783          	lhu	a5,12(s0)
   109b6:	8ba1                	and	a5,a5,8
   109b8:	c399                	beqz	a5,109be <_puts_r+0x34>
   109ba:	481c                	lw	a5,16(s0)
   109bc:	efc9                	bnez	a5,10a56 <_puts_r+0xcc>
   109be:	85a2                	mv	a1,s0
   109c0:	8526                	mv	a0,s1
   109c2:	2ab5                	jal	10b3e <__swsetup_r>
   109c4:	c949                	beqz	a0,10a56 <_puts_r+0xcc>
   109c6:	557d                	li	a0,-1
   109c8:	40f2                	lw	ra,28(sp)
   109ca:	4462                	lw	s0,24(sp)
   109cc:	44d2                	lw	s1,20(sp)
   109ce:	4942                	lw	s2,16(sp)
   109d0:	49b2                	lw	s3,12(sp)
   109d2:	4a22                	lw	s4,8(sp)
   109d4:	6105                	add	sp,sp,32
   109d6:	8082                	ret
   109d8:	21f9                	jal	10ea6 <__sinit>
   109da:	4c9c                	lw	a5,24(s1)
   109dc:	4480                	lw	s0,8(s1)
   109de:	f3f9                	bnez	a5,109a4 <_puts_r+0x1a>
   109e0:	8526                	mv	a0,s1
   109e2:	21d1                	jal	10ea6 <__sinit>
   109e4:	b7c1                	j	109a4 <_puts_r+0x1a>
   109e6:	451c                	lw	a5,8(a0)
   109e8:	9002                	ebreak
   109ea:	000237b7          	lui	a5,0x23
   109ee:	46878793          	add	a5,a5,1128 # 23468 <__sf_fake_stdout>
   109f2:	00f41463          	bne	s0,a5,109fa <_puts_r+0x70>
   109f6:	4480                	lw	s0,8(s1)
   109f8:	bf6d                	j	109b2 <_puts_r+0x28>
   109fa:	000237b7          	lui	a5,0x23
   109fe:	44878793          	add	a5,a5,1096 # 23448 <__sf_fake_stderr>
   10a02:	faf418e3          	bne	s0,a5,109b2 <_puts_r+0x28>
   10a06:	44c0                	lw	s0,12(s1)
   10a08:	b76d                	j	109b2 <_puts_r+0x28>
   10a0a:	c41c                	sw	a5,8(s0)
   10a0c:	0905                	add	s2,s2,1
   10a0e:	0007d763          	bgez	a5,10a1c <_puts_r+0x92>
   10a12:	4c18                	lw	a4,24(s0)
   10a14:	02e7cb63          	blt	a5,a4,10a4a <_puts_r+0xc0>
   10a18:	03458963          	beq	a1,s4,10a4a <_puts_r+0xc0>
   10a1c:	401c                	lw	a5,0(s0)
   10a1e:	00178713          	add	a4,a5,1
   10a22:	c018                	sw	a4,0(s0)
   10a24:	00b78023          	sb	a1,0(a5)
   10a28:	441c                	lw	a5,8(s0)
   10a2a:	00094583          	lbu	a1,0(s2)
   10a2e:	17fd                	add	a5,a5,-1
   10a30:	fde9                	bnez	a1,10a0a <_puts_r+0x80>
   10a32:	c41c                	sw	a5,8(s0)
   10a34:	0207d463          	bgez	a5,10a5c <_puts_r+0xd2>
   10a38:	8622                	mv	a2,s0
   10a3a:	45a9                	li	a1,10
   10a3c:	8526                	mv	a0,s1
   10a3e:	281d                	jal	10a74 <__swbuf_r>
   10a40:	57fd                	li	a5,-1
   10a42:	f8f502e3          	beq	a0,a5,109c6 <_puts_r+0x3c>
   10a46:	4529                	li	a0,10
   10a48:	b741                	j	109c8 <_puts_r+0x3e>
   10a4a:	8622                	mv	a2,s0
   10a4c:	8526                	mv	a0,s1
   10a4e:	201d                	jal	10a74 <__swbuf_r>
   10a50:	fd351ce3          	bne	a0,s3,10a28 <_puts_r+0x9e>
   10a54:	bf8d                	j	109c6 <_puts_r+0x3c>
   10a56:	59fd                	li	s3,-1
   10a58:	4a29                	li	s4,10
   10a5a:	b7f9                	j	10a28 <_puts_r+0x9e>
   10a5c:	401c                	lw	a5,0(s0)
   10a5e:	00178713          	add	a4,a5,1
   10a62:	c018                	sw	a4,0(s0)
   10a64:	4729                	li	a4,10
   10a66:	00e78023          	sb	a4,0(a5)
   10a6a:	bff1                	j	10a46 <_puts_r+0xbc>

00010a6c <puts>:
   10a6c:	85aa                	mv	a1,a0
   10a6e:	abc1a503          	lw	a0,-1348(gp) # 242c8 <_impure_ptr>
   10a72:	bf21                	j	1098a <_puts_r>

00010a74 <__swbuf_r>:
   10a74:	1101                	add	sp,sp,-32
   10a76:	cc22                	sw	s0,24(sp)
   10a78:	ca26                	sw	s1,20(sp)
   10a7a:	c84a                	sw	s2,16(sp)
   10a7c:	ce06                	sw	ra,28(sp)
   10a7e:	c64e                	sw	s3,12(sp)
   10a80:	84aa                	mv	s1,a0
   10a82:	892e                	mv	s2,a1
   10a84:	8432                	mv	s0,a2
   10a86:	c501                	beqz	a0,10a8e <__swbuf_r+0x1a>
   10a88:	4d1c                	lw	a5,24(a0)
   10a8a:	e391                	bnez	a5,10a8e <__swbuf_r+0x1a>
   10a8c:	2929                	jal	10ea6 <__sinit>
   10a8e:	000237b7          	lui	a5,0x23
   10a92:	48878793          	add	a5,a5,1160 # 23488 <__sf_fake_stdin>
   10a96:	02f41863          	bne	s0,a5,10ac6 <__swbuf_r+0x52>
   10a9a:	40c0                	lw	s0,4(s1)
   10a9c:	4c1c                	lw	a5,24(s0)
   10a9e:	c41c                	sw	a5,8(s0)
   10aa0:	00c45783          	lhu	a5,12(s0)
   10aa4:	8ba1                	and	a5,a5,8
   10aa6:	c399                	beqz	a5,10aac <__swbuf_r+0x38>
   10aa8:	481c                	lw	a5,16(s0)
   10aaa:	ef95                	bnez	a5,10ae6 <__swbuf_r+0x72>
   10aac:	85a2                	mv	a1,s0
   10aae:	8526                	mv	a0,s1
   10ab0:	2079                	jal	10b3e <__swsetup_r>
   10ab2:	c915                	beqz	a0,10ae6 <__swbuf_r+0x72>
   10ab4:	597d                	li	s2,-1
   10ab6:	40f2                	lw	ra,28(sp)
   10ab8:	4462                	lw	s0,24(sp)
   10aba:	44d2                	lw	s1,20(sp)
   10abc:	49b2                	lw	s3,12(sp)
   10abe:	854a                	mv	a0,s2
   10ac0:	4942                	lw	s2,16(sp)
   10ac2:	6105                	add	sp,sp,32
   10ac4:	8082                	ret
   10ac6:	000237b7          	lui	a5,0x23
   10aca:	46878793          	add	a5,a5,1128 # 23468 <__sf_fake_stdout>
   10ace:	00f41463          	bne	s0,a5,10ad6 <__swbuf_r+0x62>
   10ad2:	4480                	lw	s0,8(s1)
   10ad4:	b7e1                	j	10a9c <__swbuf_r+0x28>
   10ad6:	000237b7          	lui	a5,0x23
   10ada:	44878793          	add	a5,a5,1096 # 23448 <__sf_fake_stderr>
   10ade:	faf41fe3          	bne	s0,a5,10a9c <__swbuf_r+0x28>
   10ae2:	44c0                	lw	s0,12(s1)
   10ae4:	bf65                	j	10a9c <__swbuf_r+0x28>
   10ae6:	481c                	lw	a5,16(s0)
   10ae8:	4008                	lw	a0,0(s0)
   10aea:	0ff97993          	zext.b	s3,s2
   10aee:	0ff97913          	zext.b	s2,s2
   10af2:	8d1d                	sub	a0,a0,a5
   10af4:	485c                	lw	a5,20(s0)
   10af6:	00f54663          	blt	a0,a5,10b02 <__swbuf_r+0x8e>
   10afa:	85a2                	mv	a1,s0
   10afc:	8526                	mv	a0,s1
   10afe:	2c95                	jal	10d72 <_fflush_r>
   10b00:	f955                	bnez	a0,10ab4 <__swbuf_r+0x40>
   10b02:	441c                	lw	a5,8(s0)
   10b04:	0505                	add	a0,a0,1
   10b06:	17fd                	add	a5,a5,-1
   10b08:	c41c                	sw	a5,8(s0)
   10b0a:	401c                	lw	a5,0(s0)
   10b0c:	00178713          	add	a4,a5,1
   10b10:	c018                	sw	a4,0(s0)
   10b12:	01378023          	sb	s3,0(a5)
   10b16:	485c                	lw	a5,20(s0)
   10b18:	00a78963          	beq	a5,a0,10b2a <__swbuf_r+0xb6>
   10b1c:	00c45783          	lhu	a5,12(s0)
   10b20:	8b85                	and	a5,a5,1
   10b22:	dbd1                	beqz	a5,10ab6 <__swbuf_r+0x42>
   10b24:	47a9                	li	a5,10
   10b26:	f8f918e3          	bne	s2,a5,10ab6 <__swbuf_r+0x42>
   10b2a:	85a2                	mv	a1,s0
   10b2c:	8526                	mv	a0,s1
   10b2e:	2491                	jal	10d72 <_fflush_r>
   10b30:	d159                	beqz	a0,10ab6 <__swbuf_r+0x42>
   10b32:	b749                	j	10ab4 <__swbuf_r+0x40>

00010b34 <__swbuf>:
   10b34:	862e                	mv	a2,a1
   10b36:	85aa                	mv	a1,a0
   10b38:	abc1a503          	lw	a0,-1348(gp) # 242c8 <_impure_ptr>
   10b3c:	bf25                	j	10a74 <__swbuf_r>

00010b3e <__swsetup_r>:
   10b3e:	1141                	add	sp,sp,-16
   10b40:	c226                	sw	s1,4(sp)
   10b42:	abc1a483          	lw	s1,-1348(gp) # 242c8 <_impure_ptr>
   10b46:	c422                	sw	s0,8(sp)
   10b48:	c04a                	sw	s2,0(sp)
   10b4a:	c606                	sw	ra,12(sp)
   10b4c:	892a                	mv	s2,a0
   10b4e:	842e                	mv	s0,a1
   10b50:	c489                	beqz	s1,10b5a <__swsetup_r+0x1c>
   10b52:	4c9c                	lw	a5,24(s1)
   10b54:	e399                	bnez	a5,10b5a <__swsetup_r+0x1c>
   10b56:	8526                	mv	a0,s1
   10b58:	26b9                	jal	10ea6 <__sinit>
   10b5a:	000237b7          	lui	a5,0x23
   10b5e:	48878793          	add	a5,a5,1160 # 23488 <__sf_fake_stdin>
   10b62:	02f41463          	bne	s0,a5,10b8a <__swsetup_r+0x4c>
   10b66:	40c0                	lw	s0,4(s1)
   10b68:	00c41783          	lh	a5,12(s0)
   10b6c:	0087f713          	and	a4,a5,8
   10b70:	eb2d                	bnez	a4,10be2 <__swsetup_r+0xa4>
   10b72:	0107f713          	and	a4,a5,16
   10b76:	eb15                	bnez	a4,10baa <__swsetup_r+0x6c>
   10b78:	4725                	li	a4,9
   10b7a:	00e92023          	sw	a4,0(s2)
   10b7e:	0407e793          	or	a5,a5,64
   10b82:	00f41623          	sh	a5,12(s0)
   10b86:	557d                	li	a0,-1
   10b88:	a859                	j	10c1e <__swsetup_r+0xe0>
   10b8a:	000237b7          	lui	a5,0x23
   10b8e:	46878793          	add	a5,a5,1128 # 23468 <__sf_fake_stdout>
   10b92:	00f41463          	bne	s0,a5,10b9a <__swsetup_r+0x5c>
   10b96:	4480                	lw	s0,8(s1)
   10b98:	bfc1                	j	10b68 <__swsetup_r+0x2a>
   10b9a:	000237b7          	lui	a5,0x23
   10b9e:	44878793          	add	a5,a5,1096 # 23448 <__sf_fake_stderr>
   10ba2:	fcf413e3          	bne	s0,a5,10b68 <__swsetup_r+0x2a>
   10ba6:	44c0                	lw	s0,12(s1)
   10ba8:	b7c1                	j	10b68 <__swsetup_r+0x2a>
   10baa:	8b91                	and	a5,a5,4
   10bac:	c78d                	beqz	a5,10bd6 <__swsetup_r+0x98>
   10bae:	584c                	lw	a1,52(s0)
   10bb0:	c989                	beqz	a1,10bc2 <__swsetup_r+0x84>
   10bb2:	04440793          	add	a5,s0,68
   10bb6:	00f58463          	beq	a1,a5,10bbe <__swsetup_r+0x80>
   10bba:	854a                	mv	a0,s2
   10bbc:	2bc9                	jal	1118e <_free_r>
   10bbe:	02042a23          	sw	zero,52(s0)
   10bc2:	00c45783          	lhu	a5,12(s0)
   10bc6:	00042223          	sw	zero,4(s0)
   10bca:	fdb7f793          	and	a5,a5,-37
   10bce:	00f41623          	sh	a5,12(s0)
   10bd2:	481c                	lw	a5,16(s0)
   10bd4:	c01c                	sw	a5,0(s0)
   10bd6:	00c45783          	lhu	a5,12(s0)
   10bda:	0087e793          	or	a5,a5,8
   10bde:	00f41623          	sh	a5,12(s0)
   10be2:	481c                	lw	a5,16(s0)
   10be4:	ef81                	bnez	a5,10bfc <__swsetup_r+0xbe>
   10be6:	00c45783          	lhu	a5,12(s0)
   10bea:	20000713          	li	a4,512
   10bee:	2807f793          	and	a5,a5,640
   10bf2:	00e78563          	beq	a5,a4,10bfc <__swsetup_r+0xbe>
   10bf6:	85a2                	mv	a1,s0
   10bf8:	854a                	mv	a0,s2
   10bfa:	29cd                	jal	110ec <__smakebuf_r>
   10bfc:	00c41783          	lh	a5,12(s0)
   10c00:	0017f713          	and	a4,a5,1
   10c04:	c31d                	beqz	a4,10c2a <__swsetup_r+0xec>
   10c06:	4858                	lw	a4,20(s0)
   10c08:	00042423          	sw	zero,8(s0)
   10c0c:	40e00733          	neg	a4,a4
   10c10:	cc18                	sw	a4,24(s0)
   10c12:	4818                	lw	a4,16(s0)
   10c14:	4501                	li	a0,0
   10c16:	e701                	bnez	a4,10c1e <__swsetup_r+0xe0>
   10c18:	0807f713          	and	a4,a5,128
   10c1c:	f32d                	bnez	a4,10b7e <__swsetup_r+0x40>
   10c1e:	40b2                	lw	ra,12(sp)
   10c20:	4422                	lw	s0,8(sp)
   10c22:	4492                	lw	s1,4(sp)
   10c24:	4902                	lw	s2,0(sp)
   10c26:	0141                	add	sp,sp,16
   10c28:	8082                	ret
   10c2a:	0027f713          	and	a4,a5,2
   10c2e:	4681                	li	a3,0
   10c30:	e311                	bnez	a4,10c34 <__swsetup_r+0xf6>
   10c32:	4854                	lw	a3,20(s0)
   10c34:	c414                	sw	a3,8(s0)
   10c36:	bff1                	j	10c12 <__swsetup_r+0xd4>

00010c38 <__sflush_r>:
   10c38:	00c59783          	lh	a5,12(a1)
   10c3c:	1101                	add	sp,sp,-32
   10c3e:	cc22                	sw	s0,24(sp)
   10c40:	ca26                	sw	s1,20(sp)
   10c42:	ce06                	sw	ra,28(sp)
   10c44:	c84a                	sw	s2,16(sp)
   10c46:	c64e                	sw	s3,12(sp)
   10c48:	0087f713          	and	a4,a5,8
   10c4c:	84aa                	mv	s1,a0
   10c4e:	842e                	mv	s0,a1
   10c50:	e771                	bnez	a4,10d1c <__sflush_r+0xe4>
   10c52:	41d8                	lw	a4,4(a1)
   10c54:	00e04563          	bgtz	a4,10c5e <__sflush_r+0x26>
   10c58:	41b8                	lw	a4,64(a1)
   10c5a:	0ae05a63          	blez	a4,10d0e <__sflush_r+0xd6>
   10c5e:	5458                	lw	a4,44(s0)
   10c60:	c75d                	beqz	a4,10d0e <__sflush_r+0xd6>
   10c62:	0004a903          	lw	s2,0(s1)
   10c66:	01379693          	sll	a3,a5,0x13
   10c6a:	0004a023          	sw	zero,0(s1)
   10c6e:	500c                	lw	a1,32(s0)
   10c70:	0606dd63          	bgez	a3,10cea <__sflush_r+0xb2>
   10c74:	4870                	lw	a2,84(s0)
   10c76:	00c45783          	lhu	a5,12(s0)
   10c7a:	8b91                	and	a5,a5,4
   10c7c:	c799                	beqz	a5,10c8a <__sflush_r+0x52>
   10c7e:	405c                	lw	a5,4(s0)
   10c80:	8e1d                	sub	a2,a2,a5
   10c82:	585c                	lw	a5,52(s0)
   10c84:	c399                	beqz	a5,10c8a <__sflush_r+0x52>
   10c86:	403c                	lw	a5,64(s0)
   10c88:	8e1d                	sub	a2,a2,a5
   10c8a:	545c                	lw	a5,44(s0)
   10c8c:	500c                	lw	a1,32(s0)
   10c8e:	4681                	li	a3,0
   10c90:	8526                	mv	a0,s1
   10c92:	9782                	jalr	a5
   10c94:	577d                	li	a4,-1
   10c96:	00c45783          	lhu	a5,12(s0)
   10c9a:	00e51d63          	bne	a0,a4,10cb4 <__sflush_r+0x7c>
   10c9e:	4094                	lw	a3,0(s1)
   10ca0:	4775                	li	a4,29
   10ca2:	06d76863          	bltu	a4,a3,10d12 <__sflush_r+0xda>
   10ca6:	20400737          	lui	a4,0x20400
   10caa:	0705                	add	a4,a4,1 # 20400001 <__BSS_END__+0x203db495>
   10cac:	00d75733          	srl	a4,a4,a3
   10cb0:	8b05                	and	a4,a4,1
   10cb2:	c325                	beqz	a4,10d12 <__sflush_r+0xda>
   10cb4:	4818                	lw	a4,16(s0)
   10cb6:	00042223          	sw	zero,4(s0)
   10cba:	c018                	sw	a4,0(s0)
   10cbc:	01379713          	sll	a4,a5,0x13
   10cc0:	00075863          	bgez	a4,10cd0 <__sflush_r+0x98>
   10cc4:	57fd                	li	a5,-1
   10cc6:	00f51463          	bne	a0,a5,10cce <__sflush_r+0x96>
   10cca:	409c                	lw	a5,0(s1)
   10ccc:	e391                	bnez	a5,10cd0 <__sflush_r+0x98>
   10cce:	c868                	sw	a0,84(s0)
   10cd0:	584c                	lw	a1,52(s0)
   10cd2:	0124a023          	sw	s2,0(s1)
   10cd6:	cd85                	beqz	a1,10d0e <__sflush_r+0xd6>
   10cd8:	04440793          	add	a5,s0,68
   10cdc:	00f58463          	beq	a1,a5,10ce4 <__sflush_r+0xac>
   10ce0:	8526                	mv	a0,s1
   10ce2:	2175                	jal	1118e <_free_r>
   10ce4:	02042a23          	sw	zero,52(s0)
   10ce8:	a01d                	j	10d0e <__sflush_r+0xd6>
   10cea:	4601                	li	a2,0
   10cec:	4685                	li	a3,1
   10cee:	8526                	mv	a0,s1
   10cf0:	9702                	jalr	a4
   10cf2:	57fd                	li	a5,-1
   10cf4:	862a                	mv	a2,a0
   10cf6:	f8f510e3          	bne	a0,a5,10c76 <__sflush_r+0x3e>
   10cfa:	409c                	lw	a5,0(s1)
   10cfc:	dfad                	beqz	a5,10c76 <__sflush_r+0x3e>
   10cfe:	4775                	li	a4,29
   10d00:	00e78563          	beq	a5,a4,10d0a <__sflush_r+0xd2>
   10d04:	4759                	li	a4,22
   10d06:	04e79463          	bne	a5,a4,10d4e <__sflush_r+0x116>
   10d0a:	0124a023          	sw	s2,0(s1)
   10d0e:	4501                	li	a0,0
   10d10:	a0b1                	j	10d5c <__sflush_r+0x124>
   10d12:	0407e793          	or	a5,a5,64
   10d16:	07c2                	sll	a5,a5,0x10
   10d18:	87c1                	sra	a5,a5,0x10
   10d1a:	a835                	j	10d56 <__sflush_r+0x11e>
   10d1c:	0105a983          	lw	s3,16(a1)
   10d20:	fe0987e3          	beqz	s3,10d0e <__sflush_r+0xd6>
   10d24:	0005a903          	lw	s2,0(a1)
   10d28:	8b8d                	and	a5,a5,3
   10d2a:	0135a023          	sw	s3,0(a1)
   10d2e:	41390933          	sub	s2,s2,s3
   10d32:	4701                	li	a4,0
   10d34:	e391                	bnez	a5,10d38 <__sflush_r+0x100>
   10d36:	49d8                	lw	a4,20(a1)
   10d38:	c418                	sw	a4,8(s0)
   10d3a:	fd205ae3          	blez	s2,10d0e <__sflush_r+0xd6>
   10d3e:	541c                	lw	a5,40(s0)
   10d40:	500c                	lw	a1,32(s0)
   10d42:	86ca                	mv	a3,s2
   10d44:	864e                	mv	a2,s3
   10d46:	8526                	mv	a0,s1
   10d48:	9782                	jalr	a5
   10d4a:	02a04063          	bgtz	a0,10d6a <__sflush_r+0x132>
   10d4e:	00c41783          	lh	a5,12(s0)
   10d52:	0407e793          	or	a5,a5,64
   10d56:	00f41623          	sh	a5,12(s0)
   10d5a:	557d                	li	a0,-1
   10d5c:	40f2                	lw	ra,28(sp)
   10d5e:	4462                	lw	s0,24(sp)
   10d60:	44d2                	lw	s1,20(sp)
   10d62:	4942                	lw	s2,16(sp)
   10d64:	49b2                	lw	s3,12(sp)
   10d66:	6105                	add	sp,sp,32
   10d68:	8082                	ret
   10d6a:	99aa                	add	s3,s3,a0
   10d6c:	40a90933          	sub	s2,s2,a0
   10d70:	b7e9                	j	10d3a <__sflush_r+0x102>

00010d72 <_fflush_r>:
   10d72:	499c                	lw	a5,16(a1)
   10d74:	cfb9                	beqz	a5,10dd2 <_fflush_r+0x60>
   10d76:	1101                	add	sp,sp,-32
   10d78:	cc22                	sw	s0,24(sp)
   10d7a:	ce06                	sw	ra,28(sp)
   10d7c:	842a                	mv	s0,a0
   10d7e:	c511                	beqz	a0,10d8a <_fflush_r+0x18>
   10d80:	4d1c                	lw	a5,24(a0)
   10d82:	e781                	bnez	a5,10d8a <_fflush_r+0x18>
   10d84:	c62e                	sw	a1,12(sp)
   10d86:	2205                	jal	10ea6 <__sinit>
   10d88:	45b2                	lw	a1,12(sp)
   10d8a:	000237b7          	lui	a5,0x23
   10d8e:	48878793          	add	a5,a5,1160 # 23488 <__sf_fake_stdin>
   10d92:	00f59b63          	bne	a1,a5,10da8 <_fflush_r+0x36>
   10d96:	404c                	lw	a1,4(s0)
   10d98:	00c59783          	lh	a5,12(a1)
   10d9c:	c795                	beqz	a5,10dc8 <_fflush_r+0x56>
   10d9e:	8522                	mv	a0,s0
   10da0:	4462                	lw	s0,24(sp)
   10da2:	40f2                	lw	ra,28(sp)
   10da4:	6105                	add	sp,sp,32
   10da6:	bd49                	j	10c38 <__sflush_r>
   10da8:	000237b7          	lui	a5,0x23
   10dac:	46878793          	add	a5,a5,1128 # 23468 <__sf_fake_stdout>
   10db0:	00f59463          	bne	a1,a5,10db8 <_fflush_r+0x46>
   10db4:	440c                	lw	a1,8(s0)
   10db6:	b7cd                	j	10d98 <_fflush_r+0x26>
   10db8:	000237b7          	lui	a5,0x23
   10dbc:	44878793          	add	a5,a5,1096 # 23448 <__sf_fake_stderr>
   10dc0:	fcf59ce3          	bne	a1,a5,10d98 <_fflush_r+0x26>
   10dc4:	444c                	lw	a1,12(s0)
   10dc6:	bfc9                	j	10d98 <_fflush_r+0x26>
   10dc8:	40f2                	lw	ra,28(sp)
   10dca:	4462                	lw	s0,24(sp)
   10dcc:	4501                	li	a0,0
   10dce:	6105                	add	sp,sp,32
   10dd0:	8082                	ret
   10dd2:	4501                	li	a0,0
   10dd4:	8082                	ret

00010dd6 <fflush>:
   10dd6:	85aa                	mv	a1,a0
   10dd8:	e519                	bnez	a0,10de6 <fflush+0x10>
   10dda:	ab41a503          	lw	a0,-1356(gp) # 242c0 <_global_impure_ptr>
   10dde:	65c5                	lui	a1,0x11
   10de0:	d7258593          	add	a1,a1,-654 # 10d72 <_fflush_r>
   10de4:	a489                	j	11026 <_fwalk_reent>
   10de6:	abc1a503          	lw	a0,-1348(gp) # 242c8 <_impure_ptr>
   10dea:	b761                	j	10d72 <_fflush_r>

00010dec <__fp_lock>:
   10dec:	4501                	li	a0,0
   10dee:	8082                	ret

00010df0 <std>:
   10df0:	1141                	add	sp,sp,-16
   10df2:	c422                	sw	s0,8(sp)
   10df4:	c606                	sw	ra,12(sp)
   10df6:	842a                	mv	s0,a0
   10df8:	00b51623          	sh	a1,12(a0)
   10dfc:	00c51723          	sh	a2,14(a0)
   10e00:	00052023          	sw	zero,0(a0)
   10e04:	00052223          	sw	zero,4(a0)
   10e08:	00052423          	sw	zero,8(a0)
   10e0c:	06052223          	sw	zero,100(a0)
   10e10:	00052823          	sw	zero,16(a0)
   10e14:	00052a23          	sw	zero,20(a0)
   10e18:	00052c23          	sw	zero,24(a0)
   10e1c:	4621                	li	a2,8
   10e1e:	4581                	li	a1,0
   10e20:	05c50513          	add	a0,a0,92
   10e24:	34d5                	jal	10908 <memset>
   10e26:	67c9                	lui	a5,0x12
   10e28:	9d878793          	add	a5,a5,-1576 # 119d8 <__sread>
   10e2c:	d05c                	sw	a5,36(s0)
   10e2e:	67c9                	lui	a5,0x12
   10e30:	a0c78793          	add	a5,a5,-1524 # 11a0c <__swrite>
   10e34:	d41c                	sw	a5,40(s0)
   10e36:	67c9                	lui	a5,0x12
   10e38:	a5a78793          	add	a5,a5,-1446 # 11a5a <__sseek>
   10e3c:	d45c                	sw	a5,44(s0)
   10e3e:	67c9                	lui	a5,0x12
   10e40:	a9078793          	add	a5,a5,-1392 # 11a90 <__sclose>
   10e44:	40b2                	lw	ra,12(sp)
   10e46:	d000                	sw	s0,32(s0)
   10e48:	d81c                	sw	a5,48(s0)
   10e4a:	4422                	lw	s0,8(sp)
   10e4c:	0141                	add	sp,sp,16
   10e4e:	8082                	ret

00010e50 <_cleanup_r>:
   10e50:	65c5                	lui	a1,0x11
   10e52:	d7258593          	add	a1,a1,-654 # 10d72 <_fflush_r>
   10e56:	aac1                	j	11026 <_fwalk_reent>

00010e58 <__fp_unlock>:
   10e58:	4501                	li	a0,0
   10e5a:	8082                	ret

00010e5c <__sfmoreglue>:
   10e5c:	1141                	add	sp,sp,-16
   10e5e:	c226                	sw	s1,4(sp)
   10e60:	06800793          	li	a5,104
   10e64:	fff58493          	add	s1,a1,-1
   10e68:	02f484b3          	mul	s1,s1,a5
   10e6c:	c04a                	sw	s2,0(sp)
   10e6e:	892e                	mv	s2,a1
   10e70:	c422                	sw	s0,8(sp)
   10e72:	c606                	sw	ra,12(sp)
   10e74:	07448593          	add	a1,s1,116
   10e78:	2e65                	jal	11230 <_malloc_r>
   10e7a:	842a                	mv	s0,a0
   10e7c:	c919                	beqz	a0,10e92 <__sfmoreglue+0x36>
   10e7e:	00052023          	sw	zero,0(a0)
   10e82:	01252223          	sw	s2,4(a0)
   10e86:	0531                	add	a0,a0,12
   10e88:	c408                	sw	a0,8(s0)
   10e8a:	06848613          	add	a2,s1,104
   10e8e:	4581                	li	a1,0
   10e90:	3ca5                	jal	10908 <memset>
   10e92:	40b2                	lw	ra,12(sp)
   10e94:	8522                	mv	a0,s0
   10e96:	4422                	lw	s0,8(sp)
   10e98:	4492                	lw	s1,4(sp)
   10e9a:	4902                	lw	s2,0(sp)
   10e9c:	0141                	add	sp,sp,16
   10e9e:	8082                	ret

00010ea0 <_cleanup>:
   10ea0:	ab41a503          	lw	a0,-1356(gp) # 242c0 <_global_impure_ptr>
   10ea4:	b775                	j	10e50 <_cleanup_r>

00010ea6 <__sinit>:
   10ea6:	4d1c                	lw	a5,24(a0)
   10ea8:	e3a5                	bnez	a5,10f08 <__sinit+0x62>
   10eaa:	1141                	add	sp,sp,-16
   10eac:	67c5                	lui	a5,0x11
   10eae:	c422                	sw	s0,8(sp)
   10eb0:	c606                	sw	ra,12(sp)
   10eb2:	e5078793          	add	a5,a5,-432 # 10e50 <_cleanup_r>
   10eb6:	d51c                	sw	a5,40(a0)
   10eb8:	ab41a783          	lw	a5,-1356(gp) # 242c0 <_global_impure_ptr>
   10ebc:	04052423          	sw	zero,72(a0)
   10ec0:	04052623          	sw	zero,76(a0)
   10ec4:	04052823          	sw	zero,80(a0)
   10ec8:	842a                	mv	s0,a0
   10eca:	00f51463          	bne	a0,a5,10ed2 <__sinit+0x2c>
   10ece:	4785                	li	a5,1
   10ed0:	cd1c                	sw	a5,24(a0)
   10ed2:	8522                	mv	a0,s0
   10ed4:	281d                	jal	10f0a <__sfp>
   10ed6:	c048                	sw	a0,4(s0)
   10ed8:	8522                	mv	a0,s0
   10eda:	2805                	jal	10f0a <__sfp>
   10edc:	c408                	sw	a0,8(s0)
   10ede:	8522                	mv	a0,s0
   10ee0:	202d                	jal	10f0a <__sfp>
   10ee2:	c448                	sw	a0,12(s0)
   10ee4:	4048                	lw	a0,4(s0)
   10ee6:	4601                	li	a2,0
   10ee8:	4591                	li	a1,4
   10eea:	3719                	jal	10df0 <std>
   10eec:	4408                	lw	a0,8(s0)
   10eee:	4605                	li	a2,1
   10ef0:	45a5                	li	a1,9
   10ef2:	3dfd                	jal	10df0 <std>
   10ef4:	4448                	lw	a0,12(s0)
   10ef6:	4609                	li	a2,2
   10ef8:	45c9                	li	a1,18
   10efa:	3ddd                	jal	10df0 <std>
   10efc:	4785                	li	a5,1
   10efe:	40b2                	lw	ra,12(sp)
   10f00:	cc1c                	sw	a5,24(s0)
   10f02:	4422                	lw	s0,8(sp)
   10f04:	0141                	add	sp,sp,16
   10f06:	8082                	ret
   10f08:	8082                	ret

00010f0a <__sfp>:
   10f0a:	1141                	add	sp,sp,-16
   10f0c:	c226                	sw	s1,4(sp)
   10f0e:	ab41a483          	lw	s1,-1356(gp) # 242c0 <_global_impure_ptr>
   10f12:	c04a                	sw	s2,0(sp)
   10f14:	c606                	sw	ra,12(sp)
   10f16:	4c9c                	lw	a5,24(s1)
   10f18:	c422                	sw	s0,8(sp)
   10f1a:	892a                	mv	s2,a0
   10f1c:	e399                	bnez	a5,10f22 <__sfp+0x18>
   10f1e:	8526                	mv	a0,s1
   10f20:	3759                	jal	10ea6 <__sinit>
   10f22:	04848493          	add	s1,s1,72
   10f26:	4480                	lw	s0,8(s1)
   10f28:	40dc                	lw	a5,4(s1)
   10f2a:	17fd                	add	a5,a5,-1
   10f2c:	0007d663          	bgez	a5,10f38 <__sfp+0x2e>
   10f30:	409c                	lw	a5,0(s1)
   10f32:	cfb9                	beqz	a5,10f90 <__sfp+0x86>
   10f34:	4084                	lw	s1,0(s1)
   10f36:	bfc5                	j	10f26 <__sfp+0x1c>
   10f38:	00c41703          	lh	a4,12(s0)
   10f3c:	e739                	bnez	a4,10f8a <__sfp+0x80>
   10f3e:	77c1                	lui	a5,0xffff0
   10f40:	0785                	add	a5,a5,1 # ffff0001 <__BSS_END__+0xfffcb495>
   10f42:	06042223          	sw	zero,100(s0)
   10f46:	00042023          	sw	zero,0(s0)
   10f4a:	00042223          	sw	zero,4(s0)
   10f4e:	00042423          	sw	zero,8(s0)
   10f52:	c45c                	sw	a5,12(s0)
   10f54:	00042823          	sw	zero,16(s0)
   10f58:	00042a23          	sw	zero,20(s0)
   10f5c:	00042c23          	sw	zero,24(s0)
   10f60:	4621                	li	a2,8
   10f62:	4581                	li	a1,0
   10f64:	05c40513          	add	a0,s0,92
   10f68:	9a1ff0ef          	jal	10908 <memset>
   10f6c:	02042a23          	sw	zero,52(s0)
   10f70:	02042c23          	sw	zero,56(s0)
   10f74:	04042423          	sw	zero,72(s0)
   10f78:	04042623          	sw	zero,76(s0)
   10f7c:	40b2                	lw	ra,12(sp)
   10f7e:	8522                	mv	a0,s0
   10f80:	4422                	lw	s0,8(sp)
   10f82:	4492                	lw	s1,4(sp)
   10f84:	4902                	lw	s2,0(sp)
   10f86:	0141                	add	sp,sp,16
   10f88:	8082                	ret
   10f8a:	06840413          	add	s0,s0,104
   10f8e:	bf71                	j	10f2a <__sfp+0x20>
   10f90:	4591                	li	a1,4
   10f92:	854a                	mv	a0,s2
   10f94:	35e1                	jal	10e5c <__sfmoreglue>
   10f96:	c088                	sw	a0,0(s1)
   10f98:	842a                	mv	s0,a0
   10f9a:	fd49                	bnez	a0,10f34 <__sfp+0x2a>
   10f9c:	47b1                	li	a5,12
   10f9e:	00f92023          	sw	a5,0(s2)
   10fa2:	bfe9                	j	10f7c <__sfp+0x72>

00010fa4 <__sfp_lock_acquire>:
   10fa4:	8082                	ret

00010fa6 <__sfp_lock_release>:
   10fa6:	8082                	ret

00010fa8 <__sinit_lock_acquire>:
   10fa8:	8082                	ret

00010faa <__sinit_lock_release>:
   10faa:	8082                	ret

00010fac <__fp_lock_all>:
   10fac:	abc1a503          	lw	a0,-1348(gp) # 242c8 <_impure_ptr>
   10fb0:	65c5                	lui	a1,0x11
   10fb2:	dec58593          	add	a1,a1,-532 # 10dec <__fp_lock>
   10fb6:	a039                	j	10fc4 <_fwalk>

00010fb8 <__fp_unlock_all>:
   10fb8:	abc1a503          	lw	a0,-1348(gp) # 242c8 <_impure_ptr>
   10fbc:	65c5                	lui	a1,0x11
   10fbe:	e5858593          	add	a1,a1,-424 # 10e58 <__fp_unlock>
   10fc2:	a009                	j	10fc4 <_fwalk>

00010fc4 <_fwalk>:
   10fc4:	1101                	add	sp,sp,-32
   10fc6:	cc22                	sw	s0,24(sp)
   10fc8:	c84a                	sw	s2,16(sp)
   10fca:	c64e                	sw	s3,12(sp)
   10fcc:	c256                	sw	s5,4(sp)
   10fce:	c05a                	sw	s6,0(sp)
   10fd0:	ce06                	sw	ra,28(sp)
   10fd2:	ca26                	sw	s1,20(sp)
   10fd4:	c452                	sw	s4,8(sp)
   10fd6:	89ae                	mv	s3,a1
   10fd8:	04850413          	add	s0,a0,72
   10fdc:	4901                	li	s2,0
   10fde:	4a85                	li	s5,1
   10fe0:	5b7d                	li	s6,-1
   10fe2:	4404                	lw	s1,8(s0)
   10fe4:	00442a03          	lw	s4,4(s0)
   10fe8:	1a7d                	add	s4,s4,-1
   10fea:	000a5f63          	bgez	s4,11008 <_fwalk+0x44>
   10fee:	4000                	lw	s0,0(s0)
   10ff0:	f86d                	bnez	s0,10fe2 <_fwalk+0x1e>
   10ff2:	40f2                	lw	ra,28(sp)
   10ff4:	4462                	lw	s0,24(sp)
   10ff6:	44d2                	lw	s1,20(sp)
   10ff8:	49b2                	lw	s3,12(sp)
   10ffa:	4a22                	lw	s4,8(sp)
   10ffc:	4a92                	lw	s5,4(sp)
   10ffe:	4b02                	lw	s6,0(sp)
   11000:	854a                	mv	a0,s2
   11002:	4942                	lw	s2,16(sp)
   11004:	6105                	add	sp,sp,32
   11006:	8082                	ret
   11008:	00c4d783          	lhu	a5,12(s1)
   1100c:	00fafa63          	bgeu	s5,a5,11020 <_fwalk+0x5c>
   11010:	00e49783          	lh	a5,14(s1)
   11014:	01678663          	beq	a5,s6,11020 <_fwalk+0x5c>
   11018:	8526                	mv	a0,s1
   1101a:	9982                	jalr	s3
   1101c:	00a96933          	or	s2,s2,a0
   11020:	06848493          	add	s1,s1,104
   11024:	b7d1                	j	10fe8 <_fwalk+0x24>

00011026 <_fwalk_reent>:
   11026:	7179                	add	sp,sp,-48
   11028:	d422                	sw	s0,40(sp)
   1102a:	d04a                	sw	s2,32(sp)
   1102c:	ce4e                	sw	s3,28(sp)
   1102e:	cc52                	sw	s4,24(sp)
   11030:	c85a                	sw	s6,16(sp)
   11032:	c65e                	sw	s7,12(sp)
   11034:	d606                	sw	ra,44(sp)
   11036:	d226                	sw	s1,36(sp)
   11038:	ca56                	sw	s5,20(sp)
   1103a:	892a                	mv	s2,a0
   1103c:	8a2e                	mv	s4,a1
   1103e:	04850413          	add	s0,a0,72
   11042:	4981                	li	s3,0
   11044:	4b05                	li	s6,1
   11046:	5bfd                	li	s7,-1
   11048:	4404                	lw	s1,8(s0)
   1104a:	00442a83          	lw	s5,4(s0)
   1104e:	1afd                	add	s5,s5,-1
   11050:	020ad063          	bgez	s5,11070 <_fwalk_reent+0x4a>
   11054:	4000                	lw	s0,0(s0)
   11056:	f86d                	bnez	s0,11048 <_fwalk_reent+0x22>
   11058:	50b2                	lw	ra,44(sp)
   1105a:	5422                	lw	s0,40(sp)
   1105c:	5492                	lw	s1,36(sp)
   1105e:	5902                	lw	s2,32(sp)
   11060:	4a62                	lw	s4,24(sp)
   11062:	4ad2                	lw	s5,20(sp)
   11064:	4b42                	lw	s6,16(sp)
   11066:	4bb2                	lw	s7,12(sp)
   11068:	854e                	mv	a0,s3
   1106a:	49f2                	lw	s3,28(sp)
   1106c:	6145                	add	sp,sp,48
   1106e:	8082                	ret
   11070:	00c4d783          	lhu	a5,12(s1)
   11074:	00fb7b63          	bgeu	s6,a5,1108a <_fwalk_reent+0x64>
   11078:	00e49783          	lh	a5,14(s1)
   1107c:	01778763          	beq	a5,s7,1108a <_fwalk_reent+0x64>
   11080:	85a6                	mv	a1,s1
   11082:	854a                	mv	a0,s2
   11084:	9a02                	jalr	s4
   11086:	00a9e9b3          	or	s3,s3,a0
   1108a:	06848493          	add	s1,s1,104
   1108e:	b7c1                	j	1104e <_fwalk_reent+0x28>

00011090 <__swhatbuf_r>:
   11090:	7159                	add	sp,sp,-112
   11092:	d4a2                	sw	s0,104(sp)
   11094:	842e                	mv	s0,a1
   11096:	00e59583          	lh	a1,14(a1)
   1109a:	d2a6                	sw	s1,100(sp)
   1109c:	d0ca                	sw	s2,96(sp)
   1109e:	d686                	sw	ra,108(sp)
   110a0:	84b2                	mv	s1,a2
   110a2:	8936                	mv	s2,a3
   110a4:	0205d363          	bgez	a1,110ca <__swhatbuf_r+0x3a>
   110a8:	00c45783          	lhu	a5,12(s0)
   110ac:	0807f793          	and	a5,a5,128
   110b0:	eb95                	bnez	a5,110e4 <__swhatbuf_r+0x54>
   110b2:	40000713          	li	a4,1024
   110b6:	50b6                	lw	ra,108(sp)
   110b8:	5426                	lw	s0,104(sp)
   110ba:	00f92023          	sw	a5,0(s2)
   110be:	c098                	sw	a4,0(s1)
   110c0:	5906                	lw	s2,96(sp)
   110c2:	5496                	lw	s1,100(sp)
   110c4:	4501                	li	a0,0
   110c6:	6165                	add	sp,sp,112
   110c8:	8082                	ret
   110ca:	0030                	add	a2,sp,8
   110cc:	223000ef          	jal	11aee <_fstat_r>
   110d0:	fc054ce3          	bltz	a0,110a8 <__swhatbuf_r+0x18>
   110d4:	4732                	lw	a4,12(sp)
   110d6:	67bd                	lui	a5,0xf
   110d8:	8ff9                	and	a5,a5,a4
   110da:	7779                	lui	a4,0xffffe
   110dc:	97ba                	add	a5,a5,a4
   110de:	0017b793          	seqz	a5,a5
   110e2:	bfc1                	j	110b2 <__swhatbuf_r+0x22>
   110e4:	4781                	li	a5,0
   110e6:	04000713          	li	a4,64
   110ea:	b7f1                	j	110b6 <__swhatbuf_r+0x26>

000110ec <__smakebuf_r>:
   110ec:	00c5d783          	lhu	a5,12(a1)
   110f0:	7179                	add	sp,sp,-48
   110f2:	d422                	sw	s0,40(sp)
   110f4:	d606                	sw	ra,44(sp)
   110f6:	d226                	sw	s1,36(sp)
   110f8:	d04a                	sw	s2,32(sp)
   110fa:	ce4e                	sw	s3,28(sp)
   110fc:	8b89                	and	a5,a5,2
   110fe:	842e                	mv	s0,a1
   11100:	cf91                	beqz	a5,1111c <__smakebuf_r+0x30>
   11102:	04740793          	add	a5,s0,71
   11106:	c01c                	sw	a5,0(s0)
   11108:	c81c                	sw	a5,16(s0)
   1110a:	4785                	li	a5,1
   1110c:	c85c                	sw	a5,20(s0)
   1110e:	50b2                	lw	ra,44(sp)
   11110:	5422                	lw	s0,40(sp)
   11112:	5492                	lw	s1,36(sp)
   11114:	5902                	lw	s2,32(sp)
   11116:	49f2                	lw	s3,28(sp)
   11118:	6145                	add	sp,sp,48
   1111a:	8082                	ret
   1111c:	0074                	add	a3,sp,12
   1111e:	0030                	add	a2,sp,8
   11120:	84aa                	mv	s1,a0
   11122:	37bd                	jal	11090 <__swhatbuf_r>
   11124:	49a2                	lw	s3,8(sp)
   11126:	892a                	mv	s2,a0
   11128:	8526                	mv	a0,s1
   1112a:	85ce                	mv	a1,s3
   1112c:	2211                	jal	11230 <_malloc_r>
   1112e:	ed01                	bnez	a0,11146 <__smakebuf_r+0x5a>
   11130:	00c41783          	lh	a5,12(s0)
   11134:	2007f713          	and	a4,a5,512
   11138:	fb79                	bnez	a4,1110e <__smakebuf_r+0x22>
   1113a:	9bf1                	and	a5,a5,-4
   1113c:	0027e793          	or	a5,a5,2
   11140:	00f41623          	sh	a5,12(s0)
   11144:	bf7d                	j	11102 <__smakebuf_r+0x16>
   11146:	67c5                	lui	a5,0x11
   11148:	e5078793          	add	a5,a5,-432 # 10e50 <_cleanup_r>
   1114c:	d49c                	sw	a5,40(s1)
   1114e:	00c45783          	lhu	a5,12(s0)
   11152:	c008                	sw	a0,0(s0)
   11154:	c808                	sw	a0,16(s0)
   11156:	0807e793          	or	a5,a5,128
   1115a:	00f41623          	sh	a5,12(s0)
   1115e:	47b2                	lw	a5,12(sp)
   11160:	01342a23          	sw	s3,20(s0)
   11164:	cf91                	beqz	a5,11180 <__smakebuf_r+0x94>
   11166:	00e41583          	lh	a1,14(s0)
   1116a:	8526                	mv	a0,s1
   1116c:	46d000ef          	jal	11dd8 <_isatty_r>
   11170:	c901                	beqz	a0,11180 <__smakebuf_r+0x94>
   11172:	00c45783          	lhu	a5,12(s0)
   11176:	9bf1                	and	a5,a5,-4
   11178:	0017e793          	or	a5,a5,1
   1117c:	00f41623          	sh	a5,12(s0)
   11180:	00c45783          	lhu	a5,12(s0)
   11184:	0127e533          	or	a0,a5,s2
   11188:	00a41623          	sh	a0,12(s0)
   1118c:	b749                	j	1110e <__smakebuf_r+0x22>

0001118e <_free_r>:
   1118e:	c1c5                	beqz	a1,1122e <_free_r+0xa0>
   11190:	ffc5a783          	lw	a5,-4(a1)
   11194:	1101                	add	sp,sp,-32
   11196:	cc22                	sw	s0,24(sp)
   11198:	ce06                	sw	ra,28(sp)
   1119a:	ffc58413          	add	s0,a1,-4
   1119e:	0007d363          	bgez	a5,111a4 <_free_r+0x16>
   111a2:	943e                	add	s0,s0,a5
   111a4:	c62a                	sw	a0,12(sp)
   111a6:	4cb000ef          	jal	11e70 <__malloc_lock>
   111aa:	ac81a783          	lw	a5,-1336(gp) # 242d4 <__malloc_free_list>
   111ae:	4532                	lw	a0,12(sp)
   111b0:	eb91                	bnez	a5,111c4 <_free_r+0x36>
   111b2:	00042223          	sw	zero,4(s0)
   111b6:	ac81a423          	sw	s0,-1336(gp) # 242d4 <__malloc_free_list>
   111ba:	4462                	lw	s0,24(sp)
   111bc:	40f2                	lw	ra,28(sp)
   111be:	6105                	add	sp,sp,32
   111c0:	4b30006f          	j	11e72 <__malloc_unlock>
   111c4:	00f47d63          	bgeu	s0,a5,111de <_free_r+0x50>
   111c8:	4010                	lw	a2,0(s0)
   111ca:	00c406b3          	add	a3,s0,a2
   111ce:	00d79663          	bne	a5,a3,111da <_free_r+0x4c>
   111d2:	4394                	lw	a3,0(a5)
   111d4:	43dc                	lw	a5,4(a5)
   111d6:	96b2                	add	a3,a3,a2
   111d8:	c014                	sw	a3,0(s0)
   111da:	c05c                	sw	a5,4(s0)
   111dc:	bfe9                	j	111b6 <_free_r+0x28>
   111de:	873e                	mv	a4,a5
   111e0:	43dc                	lw	a5,4(a5)
   111e2:	c399                	beqz	a5,111e8 <_free_r+0x5a>
   111e4:	fef47de3          	bgeu	s0,a5,111de <_free_r+0x50>
   111e8:	4314                	lw	a3,0(a4)
   111ea:	00d70633          	add	a2,a4,a3
   111ee:	00861f63          	bne	a2,s0,1120c <_free_r+0x7e>
   111f2:	4010                	lw	a2,0(s0)
   111f4:	96b2                	add	a3,a3,a2
   111f6:	c314                	sw	a3,0(a4)
   111f8:	00d70633          	add	a2,a4,a3
   111fc:	fac79fe3          	bne	a5,a2,111ba <_free_r+0x2c>
   11200:	4390                	lw	a2,0(a5)
   11202:	43dc                	lw	a5,4(a5)
   11204:	96b2                	add	a3,a3,a2
   11206:	c314                	sw	a3,0(a4)
   11208:	c35c                	sw	a5,4(a4)
   1120a:	bf45                	j	111ba <_free_r+0x2c>
   1120c:	00c47563          	bgeu	s0,a2,11216 <_free_r+0x88>
   11210:	47b1                	li	a5,12
   11212:	c11c                	sw	a5,0(a0)
   11214:	b75d                	j	111ba <_free_r+0x2c>
   11216:	4010                	lw	a2,0(s0)
   11218:	00c406b3          	add	a3,s0,a2
   1121c:	00d79663          	bne	a5,a3,11228 <_free_r+0x9a>
   11220:	4394                	lw	a3,0(a5)
   11222:	43dc                	lw	a5,4(a5)
   11224:	96b2                	add	a3,a3,a2
   11226:	c014                	sw	a3,0(s0)
   11228:	c05c                	sw	a5,4(s0)
   1122a:	c340                	sw	s0,4(a4)
   1122c:	b779                	j	111ba <_free_r+0x2c>
   1122e:	8082                	ret

00011230 <_malloc_r>:
   11230:	1101                	add	sp,sp,-32
   11232:	ca26                	sw	s1,20(sp)
   11234:	00358493          	add	s1,a1,3
   11238:	98f1                	and	s1,s1,-4
   1123a:	c84a                	sw	s2,16(sp)
   1123c:	ce06                	sw	ra,28(sp)
   1123e:	cc22                	sw	s0,24(sp)
   11240:	c64e                	sw	s3,12(sp)
   11242:	04a1                	add	s1,s1,8
   11244:	47b1                	li	a5,12
   11246:	892a                	mv	s2,a0
   11248:	04f4f163          	bgeu	s1,a5,1128a <_malloc_r+0x5a>
   1124c:	44b1                	li	s1,12
   1124e:	04b4e063          	bltu	s1,a1,1128e <_malloc_r+0x5e>
   11252:	854a                	mv	a0,s2
   11254:	41d000ef          	jal	11e70 <__malloc_lock>
   11258:	ac81a703          	lw	a4,-1336(gp) # 242d4 <__malloc_free_list>
   1125c:	843a                	mv	s0,a4
   1125e:	e039                	bnez	s0,112a4 <_malloc_r+0x74>
   11260:	ac41a783          	lw	a5,-1340(gp) # 242d0 <__malloc_sbrk_start>
   11264:	e791                	bnez	a5,11270 <_malloc_r+0x40>
   11266:	4581                	li	a1,0
   11268:	854a                	mv	a0,s2
   1126a:	2789                	jal	119ac <_sbrk_r>
   1126c:	aca1a223          	sw	a0,-1340(gp) # 242d0 <__malloc_sbrk_start>
   11270:	85a6                	mv	a1,s1
   11272:	854a                	mv	a0,s2
   11274:	2f25                	jal	119ac <_sbrk_r>
   11276:	59fd                	li	s3,-1
   11278:	07351b63          	bne	a0,s3,112ee <_malloc_r+0xbe>
   1127c:	47b1                	li	a5,12
   1127e:	00f92023          	sw	a5,0(s2)
   11282:	854a                	mv	a0,s2
   11284:	3ef000ef          	jal	11e72 <__malloc_unlock>
   11288:	a031                	j	11294 <_malloc_r+0x64>
   1128a:	fc04d2e3          	bgez	s1,1124e <_malloc_r+0x1e>
   1128e:	47b1                	li	a5,12
   11290:	00f92023          	sw	a5,0(s2)
   11294:	4501                	li	a0,0
   11296:	40f2                	lw	ra,28(sp)
   11298:	4462                	lw	s0,24(sp)
   1129a:	44d2                	lw	s1,20(sp)
   1129c:	4942                	lw	s2,16(sp)
   1129e:	49b2                	lw	s3,12(sp)
   112a0:	6105                	add	sp,sp,32
   112a2:	8082                	ret
   112a4:	401c                	lw	a5,0(s0)
   112a6:	8f85                	sub	a5,a5,s1
   112a8:	0407c063          	bltz	a5,112e8 <_malloc_r+0xb8>
   112ac:	462d                	li	a2,11
   112ae:	00f67663          	bgeu	a2,a5,112ba <_malloc_r+0x8a>
   112b2:	c01c                	sw	a5,0(s0)
   112b4:	943e                	add	s0,s0,a5
   112b6:	c004                	sw	s1,0(s0)
   112b8:	a031                	j	112c4 <_malloc_r+0x94>
   112ba:	405c                	lw	a5,4(s0)
   112bc:	02871463          	bne	a4,s0,112e4 <_malloc_r+0xb4>
   112c0:	acf1a423          	sw	a5,-1336(gp) # 242d4 <__malloc_free_list>
   112c4:	854a                	mv	a0,s2
   112c6:	3ad000ef          	jal	11e72 <__malloc_unlock>
   112ca:	00b40513          	add	a0,s0,11
   112ce:	00440793          	add	a5,s0,4
   112d2:	9961                	and	a0,a0,-8
   112d4:	40f50733          	sub	a4,a0,a5
   112d8:	faf50fe3          	beq	a0,a5,11296 <_malloc_r+0x66>
   112dc:	943a                	add	s0,s0,a4
   112de:	8f89                	sub	a5,a5,a0
   112e0:	c01c                	sw	a5,0(s0)
   112e2:	bf55                	j	11296 <_malloc_r+0x66>
   112e4:	c35c                	sw	a5,4(a4)
   112e6:	bff9                	j	112c4 <_malloc_r+0x94>
   112e8:	8722                	mv	a4,s0
   112ea:	4040                	lw	s0,4(s0)
   112ec:	bf8d                	j	1125e <_malloc_r+0x2e>
   112ee:	00350413          	add	s0,a0,3
   112f2:	9871                	and	s0,s0,-4
   112f4:	fc8501e3          	beq	a0,s0,112b6 <_malloc_r+0x86>
   112f8:	40a405b3          	sub	a1,s0,a0
   112fc:	854a                	mv	a0,s2
   112fe:	257d                	jal	119ac <_sbrk_r>
   11300:	fb351be3          	bne	a0,s3,112b6 <_malloc_r+0x86>
   11304:	bfa5                	j	1127c <_malloc_r+0x4c>

00011306 <__sfputc_r>:
   11306:	461c                	lw	a5,8(a2)
   11308:	17fd                	add	a5,a5,-1
   1130a:	c61c                	sw	a5,8(a2)
   1130c:	0007da63          	bgez	a5,11320 <__sfputc_r+0x1a>
   11310:	4e18                	lw	a4,24(a2)
   11312:	00e7c563          	blt	a5,a4,1131c <__sfputc_r+0x16>
   11316:	47a9                	li	a5,10
   11318:	00f59463          	bne	a1,a5,11320 <__sfputc_r+0x1a>
   1131c:	f58ff06f          	j	10a74 <__swbuf_r>
   11320:	421c                	lw	a5,0(a2)
   11322:	852e                	mv	a0,a1
   11324:	00178713          	add	a4,a5,1
   11328:	c218                	sw	a4,0(a2)
   1132a:	00b78023          	sb	a1,0(a5)
   1132e:	8082                	ret

00011330 <__sfputs_r>:
   11330:	1101                	add	sp,sp,-32
   11332:	cc22                	sw	s0,24(sp)
   11334:	ca26                	sw	s1,20(sp)
   11336:	c84a                	sw	s2,16(sp)
   11338:	c64e                	sw	s3,12(sp)
   1133a:	c452                	sw	s4,8(sp)
   1133c:	ce06                	sw	ra,28(sp)
   1133e:	892a                	mv	s2,a0
   11340:	89ae                	mv	s3,a1
   11342:	8432                	mv	s0,a2
   11344:	00d604b3          	add	s1,a2,a3
   11348:	5a7d                	li	s4,-1
   1134a:	00941463          	bne	s0,s1,11352 <__sfputs_r+0x22>
   1134e:	4501                	li	a0,0
   11350:	a809                	j	11362 <__sfputs_r+0x32>
   11352:	00044583          	lbu	a1,0(s0)
   11356:	864e                	mv	a2,s3
   11358:	854a                	mv	a0,s2
   1135a:	3775                	jal	11306 <__sfputc_r>
   1135c:	0405                	add	s0,s0,1
   1135e:	ff4516e3          	bne	a0,s4,1134a <__sfputs_r+0x1a>
   11362:	40f2                	lw	ra,28(sp)
   11364:	4462                	lw	s0,24(sp)
   11366:	44d2                	lw	s1,20(sp)
   11368:	4942                	lw	s2,16(sp)
   1136a:	49b2                	lw	s3,12(sp)
   1136c:	4a22                	lw	s4,8(sp)
   1136e:	6105                	add	sp,sp,32
   11370:	8082                	ret

00011372 <__sprint_r>:
   11372:	461c                	lw	a5,8(a2)
   11374:	1141                	add	sp,sp,-16
   11376:	c422                	sw	s0,8(sp)
   11378:	c606                	sw	ra,12(sp)
   1137a:	8432                	mv	s0,a2
   1137c:	cb99                	beqz	a5,11392 <__sprint_r+0x20>
   1137e:	79c000ef          	jal	11b1a <__sfvwrite_r>
   11382:	00042423          	sw	zero,8(s0)
   11386:	40b2                	lw	ra,12(sp)
   11388:	00042223          	sw	zero,4(s0)
   1138c:	4422                	lw	s0,8(sp)
   1138e:	0141                	add	sp,sp,16
   11390:	8082                	ret
   11392:	4501                	li	a0,0
   11394:	bfcd                	j	11386 <__sprint_r+0x14>

00011396 <_vfiprintf_r>:
   11396:	7171                	add	sp,sp,-176
   11398:	d522                	sw	s0,168(sp)
   1139a:	d326                	sw	s1,164(sp)
   1139c:	d14a                	sw	s2,160(sp)
   1139e:	cf4e                	sw	s3,156(sp)
   113a0:	d706                	sw	ra,172(sp)
   113a2:	cd52                	sw	s4,152(sp)
   113a4:	cb56                	sw	s5,148(sp)
   113a6:	c95a                	sw	s6,144(sp)
   113a8:	c75e                	sw	s7,140(sp)
   113aa:	c562                	sw	s8,136(sp)
   113ac:	c366                	sw	s9,132(sp)
   113ae:	c16a                	sw	s10,128(sp)
   113b0:	deee                	sw	s11,124(sp)
   113b2:	89aa                	mv	s3,a0
   113b4:	84ae                	mv	s1,a1
   113b6:	8932                	mv	s2,a2
   113b8:	8436                	mv	s0,a3
   113ba:	c501                	beqz	a0,113c2 <_vfiprintf_r+0x2c>
   113bc:	4d1c                	lw	a5,24(a0)
   113be:	e391                	bnez	a5,113c2 <_vfiprintf_r+0x2c>
   113c0:	34dd                	jal	10ea6 <__sinit>
   113c2:	000237b7          	lui	a5,0x23
   113c6:	48878793          	add	a5,a5,1160 # 23488 <__sf_fake_stdin>
   113ca:	0ef49463          	bne	s1,a5,114b2 <_vfiprintf_r+0x11c>
   113ce:	0049a483          	lw	s1,4(s3)
   113d2:	00c4d783          	lhu	a5,12(s1)
   113d6:	8ba1                	and	a5,a5,8
   113d8:	0e078f63          	beqz	a5,114d6 <_vfiprintf_r+0x140>
   113dc:	489c                	lw	a5,16(s1)
   113de:	0e078c63          	beqz	a5,114d6 <_vfiprintf_r+0x140>
   113e2:	02000793          	li	a5,32
   113e6:	02f104a3          	sb	a5,41(sp)
   113ea:	03000793          	li	a5,48
   113ee:	d202                	sw	zero,36(sp)
   113f0:	02f10523          	sb	a5,42(sp)
   113f4:	c622                	sw	s0,12(sp)
   113f6:	02500c93          	li	s9,37
   113fa:	00023b37          	lui	s6,0x23
   113fe:	00023bb7          	lui	s7,0x23
   11402:	00023d37          	lui	s10,0x23
   11406:	6c45                	lui	s8,0x11
   11408:	00000a93          	li	s5,0
   1140c:	844a                	mv	s0,s2
   1140e:	00044783          	lbu	a5,0(s0)
   11412:	c399                	beqz	a5,11418 <_vfiprintf_r+0x82>
   11414:	0f979763          	bne	a5,s9,11502 <_vfiprintf_r+0x16c>
   11418:	41240db3          	sub	s11,s0,s2
   1141c:	01240d63          	beq	s0,s2,11436 <_vfiprintf_r+0xa0>
   11420:	86ee                	mv	a3,s11
   11422:	864a                	mv	a2,s2
   11424:	85a6                	mv	a1,s1
   11426:	854e                	mv	a0,s3
   11428:	3721                	jal	11330 <__sfputs_r>
   1142a:	57fd                	li	a5,-1
   1142c:	1ef50563          	beq	a0,a5,11616 <_vfiprintf_r+0x280>
   11430:	5792                	lw	a5,36(sp)
   11432:	97ee                	add	a5,a5,s11
   11434:	d23e                	sw	a5,36(sp)
   11436:	00044783          	lbu	a5,0(s0)
   1143a:	1c078e63          	beqz	a5,11616 <_vfiprintf_r+0x280>
   1143e:	57fd                	li	a5,-1
   11440:	00140913          	add	s2,s0,1
   11444:	c802                	sw	zero,16(sp)
   11446:	ce02                	sw	zero,28(sp)
   11448:	ca3e                	sw	a5,20(sp)
   1144a:	cc02                	sw	zero,24(sp)
   1144c:	040109a3          	sb	zero,83(sp)
   11450:	d482                	sw	zero,104(sp)
   11452:	4d85                	li	s11,1
   11454:	00094583          	lbu	a1,0(s2)
   11458:	4615                	li	a2,5
   1145a:	3f8b0513          	add	a0,s6,1016 # 233f8 <conv2_weights+0x271c>
   1145e:	1d3000ef          	jal	11e30 <memchr>
   11462:	47c2                	lw	a5,16(sp)
   11464:	00190413          	add	s0,s2,1
   11468:	ed59                	bnez	a0,11506 <_vfiprintf_r+0x170>
   1146a:	0107f713          	and	a4,a5,16
   1146e:	c709                	beqz	a4,11478 <_vfiprintf_r+0xe2>
   11470:	02000713          	li	a4,32
   11474:	04e109a3          	sb	a4,83(sp)
   11478:	0087f713          	and	a4,a5,8
   1147c:	c709                	beqz	a4,11486 <_vfiprintf_r+0xf0>
   1147e:	02b00713          	li	a4,43
   11482:	04e109a3          	sb	a4,83(sp)
   11486:	00094683          	lbu	a3,0(s2)
   1148a:	02a00713          	li	a4,42
   1148e:	08e68563          	beq	a3,a4,11518 <_vfiprintf_r+0x182>
   11492:	47f2                	lw	a5,28(sp)
   11494:	844a                	mv	s0,s2
   11496:	4681                	li	a3,0
   11498:	4625                	li	a2,9
   1149a:	4529                	li	a0,10
   1149c:	00044703          	lbu	a4,0(s0)
   114a0:	00140593          	add	a1,s0,1
   114a4:	fd070713          	add	a4,a4,-48 # ffffdfd0 <__BSS_END__+0xfffd9464>
   114a8:	0ae67e63          	bgeu	a2,a4,11564 <_vfiprintf_r+0x1ce>
   114ac:	ceb5                	beqz	a3,11528 <_vfiprintf_r+0x192>
   114ae:	ce3e                	sw	a5,28(sp)
   114b0:	a8a5                	j	11528 <_vfiprintf_r+0x192>
   114b2:	000237b7          	lui	a5,0x23
   114b6:	46878793          	add	a5,a5,1128 # 23468 <__sf_fake_stdout>
   114ba:	00f49563          	bne	s1,a5,114c4 <_vfiprintf_r+0x12e>
   114be:	0089a483          	lw	s1,8(s3)
   114c2:	bf01                	j	113d2 <_vfiprintf_r+0x3c>
   114c4:	000237b7          	lui	a5,0x23
   114c8:	44878793          	add	a5,a5,1096 # 23448 <__sf_fake_stderr>
   114cc:	f0f493e3          	bne	s1,a5,113d2 <_vfiprintf_r+0x3c>
   114d0:	00c9a483          	lw	s1,12(s3)
   114d4:	bdfd                	j	113d2 <_vfiprintf_r+0x3c>
   114d6:	85a6                	mv	a1,s1
   114d8:	854e                	mv	a0,s3
   114da:	e64ff0ef          	jal	10b3e <__swsetup_r>
   114de:	f00502e3          	beqz	a0,113e2 <_vfiprintf_r+0x4c>
   114e2:	557d                	li	a0,-1
   114e4:	50ba                	lw	ra,172(sp)
   114e6:	542a                	lw	s0,168(sp)
   114e8:	549a                	lw	s1,164(sp)
   114ea:	590a                	lw	s2,160(sp)
   114ec:	49fa                	lw	s3,156(sp)
   114ee:	4a6a                	lw	s4,152(sp)
   114f0:	4ada                	lw	s5,148(sp)
   114f2:	4b4a                	lw	s6,144(sp)
   114f4:	4bba                	lw	s7,140(sp)
   114f6:	4c2a                	lw	s8,136(sp)
   114f8:	4c9a                	lw	s9,132(sp)
   114fa:	4d0a                	lw	s10,128(sp)
   114fc:	5df6                	lw	s11,124(sp)
   114fe:	614d                	add	sp,sp,176
   11500:	8082                	ret
   11502:	0405                	add	s0,s0,1
   11504:	b729                	j	1140e <_vfiprintf_r+0x78>
   11506:	3f8b0713          	add	a4,s6,1016
   1150a:	8d19                	sub	a0,a0,a4
   1150c:	00ad9533          	sll	a0,s11,a0
   11510:	8fc9                	or	a5,a5,a0
   11512:	c83e                	sw	a5,16(sp)
   11514:	8922                	mv	s2,s0
   11516:	bf3d                	j	11454 <_vfiprintf_r+0xbe>
   11518:	4732                	lw	a4,12(sp)
   1151a:	00470693          	add	a3,a4,4
   1151e:	4318                	lw	a4,0(a4)
   11520:	c636                	sw	a3,12(sp)
   11522:	02074a63          	bltz	a4,11556 <_vfiprintf_r+0x1c0>
   11526:	ce3a                	sw	a4,28(sp)
   11528:	00044703          	lbu	a4,0(s0)
   1152c:	02e00793          	li	a5,46
   11530:	04f71f63          	bne	a4,a5,1158e <_vfiprintf_r+0x1f8>
   11534:	00144703          	lbu	a4,1(s0)
   11538:	02a00793          	li	a5,42
   1153c:	02f71a63          	bne	a4,a5,11570 <_vfiprintf_r+0x1da>
   11540:	47b2                	lw	a5,12(sp)
   11542:	0409                	add	s0,s0,2
   11544:	00478713          	add	a4,a5,4
   11548:	439c                	lw	a5,0(a5)
   1154a:	c63a                	sw	a4,12(sp)
   1154c:	0007d363          	bgez	a5,11552 <_vfiprintf_r+0x1bc>
   11550:	57fd                	li	a5,-1
   11552:	ca3e                	sw	a5,20(sp)
   11554:	a82d                	j	1158e <_vfiprintf_r+0x1f8>
   11556:	40e00733          	neg	a4,a4
   1155a:	0027e793          	or	a5,a5,2
   1155e:	ce3a                	sw	a4,28(sp)
   11560:	c83e                	sw	a5,16(sp)
   11562:	b7d9                	j	11528 <_vfiprintf_r+0x192>
   11564:	02a787b3          	mul	a5,a5,a0
   11568:	842e                	mv	s0,a1
   1156a:	4685                	li	a3,1
   1156c:	97ba                	add	a5,a5,a4
   1156e:	b73d                	j	1149c <_vfiprintf_r+0x106>
   11570:	0405                	add	s0,s0,1
   11572:	ca02                	sw	zero,20(sp)
   11574:	4681                	li	a3,0
   11576:	4781                	li	a5,0
   11578:	4625                	li	a2,9
   1157a:	4529                	li	a0,10
   1157c:	00044703          	lbu	a4,0(s0)
   11580:	00140593          	add	a1,s0,1
   11584:	fd070713          	add	a4,a4,-48
   11588:	04e67f63          	bgeu	a2,a4,115e6 <_vfiprintf_r+0x250>
   1158c:	f2f9                	bnez	a3,11552 <_vfiprintf_r+0x1bc>
   1158e:	00044583          	lbu	a1,0(s0)
   11592:	460d                	li	a2,3
   11594:	400b8513          	add	a0,s7,1024 # 23400 <conv2_weights+0x2724>
   11598:	099000ef          	jal	11e30 <memchr>
   1159c:	cd01                	beqz	a0,115b4 <_vfiprintf_r+0x21e>
   1159e:	400b8793          	add	a5,s7,1024
   115a2:	8d1d                	sub	a0,a0,a5
   115a4:	47c2                	lw	a5,16(sp)
   115a6:	04000713          	li	a4,64
   115aa:	00a71733          	sll	a4,a4,a0
   115ae:	8fd9                	or	a5,a5,a4
   115b0:	0405                	add	s0,s0,1
   115b2:	c83e                	sw	a5,16(sp)
   115b4:	00044583          	lbu	a1,0(s0)
   115b8:	4619                	li	a2,6
   115ba:	404d0513          	add	a0,s10,1028 # 23404 <conv2_weights+0x2728>
   115be:	00140913          	add	s2,s0,1
   115c2:	02b10423          	sb	a1,40(sp)
   115c6:	06b000ef          	jal	11e30 <memchr>
   115ca:	cd31                	beqz	a0,11626 <_vfiprintf_r+0x290>
   115cc:	020a9763          	bnez	s5,115fa <_vfiprintf_r+0x264>
   115d0:	4742                	lw	a4,16(sp)
   115d2:	47b2                	lw	a5,12(sp)
   115d4:	10077713          	and	a4,a4,256
   115d8:	cf09                	beqz	a4,115f2 <_vfiprintf_r+0x25c>
   115da:	0791                	add	a5,a5,4
   115dc:	c63e                	sw	a5,12(sp)
   115de:	5792                	lw	a5,36(sp)
   115e0:	97d2                	add	a5,a5,s4
   115e2:	d23e                	sw	a5,36(sp)
   115e4:	b525                	j	1140c <_vfiprintf_r+0x76>
   115e6:	02a787b3          	mul	a5,a5,a0
   115ea:	842e                	mv	s0,a1
   115ec:	4685                	li	a3,1
   115ee:	97ba                	add	a5,a5,a4
   115f0:	b771                	j	1157c <_vfiprintf_r+0x1e6>
   115f2:	079d                	add	a5,a5,7
   115f4:	9be1                	and	a5,a5,-8
   115f6:	07a1                	add	a5,a5,8
   115f8:	b7d5                	j	115dc <_vfiprintf_r+0x246>
   115fa:	0078                	add	a4,sp,12
   115fc:	330c0693          	add	a3,s8,816 # 11330 <__sfputs_r>
   11600:	8626                	mv	a2,s1
   11602:	080c                	add	a1,sp,16
   11604:	854e                	mv	a0,s3
   11606:	00000097          	auipc	ra,0x0
   1160a:	000000e7          	jalr	zero # 0 <exit-0x10094>
   1160e:	57fd                	li	a5,-1
   11610:	8a2a                	mv	s4,a0
   11612:	fcf516e3          	bne	a0,a5,115de <_vfiprintf_r+0x248>
   11616:	00c4d783          	lhu	a5,12(s1)
   1161a:	0407f793          	and	a5,a5,64
   1161e:	ec0792e3          	bnez	a5,114e2 <_vfiprintf_r+0x14c>
   11622:	5512                	lw	a0,36(sp)
   11624:	b5c1                	j	114e4 <_vfiprintf_r+0x14e>
   11626:	0078                	add	a4,sp,12
   11628:	330c0693          	add	a3,s8,816
   1162c:	8626                	mv	a2,s1
   1162e:	080c                	add	a1,sp,16
   11630:	854e                	mv	a0,s3
   11632:	2205                	jal	11752 <_printf_i>
   11634:	bfe9                	j	1160e <_vfiprintf_r+0x278>

00011636 <vfiprintf>:
   11636:	86b2                	mv	a3,a2
   11638:	862e                	mv	a2,a1
   1163a:	85aa                	mv	a1,a0
   1163c:	abc1a503          	lw	a0,-1348(gp) # 242c8 <_impure_ptr>
   11640:	bb99                	j	11396 <_vfiprintf_r>

00011642 <_printf_common>:
   11642:	7179                	add	sp,sp,-48
   11644:	ca56                	sw	s5,20(sp)
   11646:	499c                	lw	a5,16(a1)
   11648:	8aba                	mv	s5,a4
   1164a:	4598                	lw	a4,8(a1)
   1164c:	d422                	sw	s0,40(sp)
   1164e:	d04a                	sw	s2,32(sp)
   11650:	ce4e                	sw	s3,28(sp)
   11652:	cc52                	sw	s4,24(sp)
   11654:	d606                	sw	ra,44(sp)
   11656:	d226                	sw	s1,36(sp)
   11658:	c85a                	sw	s6,16(sp)
   1165a:	c65e                	sw	s7,12(sp)
   1165c:	89aa                	mv	s3,a0
   1165e:	842e                	mv	s0,a1
   11660:	8932                	mv	s2,a2
   11662:	8a36                	mv	s4,a3
   11664:	00e7d363          	bge	a5,a4,1166a <_printf_common+0x28>
   11668:	87ba                	mv	a5,a4
   1166a:	00f92023          	sw	a5,0(s2)
   1166e:	04344703          	lbu	a4,67(s0)
   11672:	c701                	beqz	a4,1167a <_printf_common+0x38>
   11674:	0785                	add	a5,a5,1
   11676:	00f92023          	sw	a5,0(s2)
   1167a:	401c                	lw	a5,0(s0)
   1167c:	0207f793          	and	a5,a5,32
   11680:	c791                	beqz	a5,1168c <_printf_common+0x4a>
   11682:	00092783          	lw	a5,0(s2)
   11686:	0789                	add	a5,a5,2
   11688:	00f92023          	sw	a5,0(s2)
   1168c:	4004                	lw	s1,0(s0)
   1168e:	8899                	and	s1,s1,6
   11690:	e891                	bnez	s1,116a4 <_printf_common+0x62>
   11692:	01940b13          	add	s6,s0,25
   11696:	5bfd                	li	s7,-1
   11698:	445c                	lw	a5,12(s0)
   1169a:	00092703          	lw	a4,0(s2)
   1169e:	8f99                	sub	a5,a5,a4
   116a0:	04f4cc63          	blt	s1,a5,116f8 <_printf_common+0xb6>
   116a4:	04344783          	lbu	a5,67(s0)
   116a8:	00f036b3          	snez	a3,a5
   116ac:	401c                	lw	a5,0(s0)
   116ae:	0207f793          	and	a5,a5,32
   116b2:	eba5                	bnez	a5,11722 <_printf_common+0xe0>
   116b4:	04340613          	add	a2,s0,67
   116b8:	85d2                	mv	a1,s4
   116ba:	854e                	mv	a0,s3
   116bc:	9a82                	jalr	s5
   116be:	57fd                	li	a5,-1
   116c0:	04f50363          	beq	a0,a5,11706 <_printf_common+0xc4>
   116c4:	401c                	lw	a5,0(s0)
   116c6:	4711                	li	a4,4
   116c8:	4481                	li	s1,0
   116ca:	8b99                	and	a5,a5,6
   116cc:	00e79963          	bne	a5,a4,116de <_printf_common+0x9c>
   116d0:	4444                	lw	s1,12(s0)
   116d2:	00092783          	lw	a5,0(s2)
   116d6:	8c9d                	sub	s1,s1,a5
   116d8:	0004d363          	bgez	s1,116de <_printf_common+0x9c>
   116dc:	4481                	li	s1,0
   116de:	441c                	lw	a5,8(s0)
   116e0:	4818                	lw	a4,16(s0)
   116e2:	00f75463          	bge	a4,a5,116ea <_printf_common+0xa8>
   116e6:	8f99                	sub	a5,a5,a4
   116e8:	94be                	add	s1,s1,a5
   116ea:	4901                	li	s2,0
   116ec:	0469                	add	s0,s0,26
   116ee:	5b7d                	li	s6,-1
   116f0:	05249863          	bne	s1,s2,11740 <_printf_common+0xfe>
   116f4:	4501                	li	a0,0
   116f6:	a809                	j	11708 <_printf_common+0xc6>
   116f8:	4685                	li	a3,1
   116fa:	865a                	mv	a2,s6
   116fc:	85d2                	mv	a1,s4
   116fe:	854e                	mv	a0,s3
   11700:	9a82                	jalr	s5
   11702:	01751e63          	bne	a0,s7,1171e <_printf_common+0xdc>
   11706:	557d                	li	a0,-1
   11708:	50b2                	lw	ra,44(sp)
   1170a:	5422                	lw	s0,40(sp)
   1170c:	5492                	lw	s1,36(sp)
   1170e:	5902                	lw	s2,32(sp)
   11710:	49f2                	lw	s3,28(sp)
   11712:	4a62                	lw	s4,24(sp)
   11714:	4ad2                	lw	s5,20(sp)
   11716:	4b42                	lw	s6,16(sp)
   11718:	4bb2                	lw	s7,12(sp)
   1171a:	6145                	add	sp,sp,48
   1171c:	8082                	ret
   1171e:	0485                	add	s1,s1,1
   11720:	bfa5                	j	11698 <_printf_common+0x56>
   11722:	00d40733          	add	a4,s0,a3
   11726:	03000613          	li	a2,48
   1172a:	04c701a3          	sb	a2,67(a4)
   1172e:	04544703          	lbu	a4,69(s0)
   11732:	00168793          	add	a5,a3,1
   11736:	97a2                	add	a5,a5,s0
   11738:	0689                	add	a3,a3,2
   1173a:	04e781a3          	sb	a4,67(a5)
   1173e:	bf9d                	j	116b4 <_printf_common+0x72>
   11740:	4685                	li	a3,1
   11742:	8622                	mv	a2,s0
   11744:	85d2                	mv	a1,s4
   11746:	854e                	mv	a0,s3
   11748:	9a82                	jalr	s5
   1174a:	fb650ee3          	beq	a0,s6,11706 <_printf_common+0xc4>
   1174e:	0905                	add	s2,s2,1
   11750:	b745                	j	116f0 <_printf_common+0xae>

00011752 <_printf_i>:
   11752:	7179                	add	sp,sp,-48
   11754:	d422                	sw	s0,40(sp)
   11756:	d04a                	sw	s2,32(sp)
   11758:	ce4e                	sw	s3,28(sp)
   1175a:	cc52                	sw	s4,24(sp)
   1175c:	d606                	sw	ra,44(sp)
   1175e:	d226                	sw	s1,36(sp)
   11760:	ca56                	sw	s5,20(sp)
   11762:	c85a                	sw	s6,16(sp)
   11764:	8a36                	mv	s4,a3
   11766:	0185c683          	lbu	a3,24(a1)
   1176a:	07800793          	li	a5,120
   1176e:	892a                	mv	s2,a0
   11770:	842e                	mv	s0,a1
   11772:	89b2                	mv	s3,a2
   11774:	00d7ee63          	bltu	a5,a3,11790 <_printf_i+0x3e>
   11778:	06200793          	li	a5,98
   1177c:	04358613          	add	a2,a1,67
   11780:	00d7ed63          	bltu	a5,a3,1179a <_printf_i+0x48>
   11784:	1a068c63          	beqz	a3,1193c <_printf_i+0x1ea>
   11788:	05800793          	li	a5,88
   1178c:	16f68863          	beq	a3,a5,118fc <_printf_i+0x1aa>
   11790:	04240493          	add	s1,s0,66
   11794:	04d40123          	sb	a3,66(s0)
   11798:	a80d                	j	117ca <_printf_i+0x78>
   1179a:	f9d68793          	add	a5,a3,-99
   1179e:	0ff7f793          	zext.b	a5,a5
   117a2:	45d5                	li	a1,21
   117a4:	fef5e6e3          	bltu	a1,a5,11790 <_printf_i+0x3e>
   117a8:	000235b7          	lui	a1,0x23
   117ac:	078a                	sll	a5,a5,0x2
   117ae:	4a858593          	add	a1,a1,1192 # 234a8 <__sf_fake_stdin+0x20>
   117b2:	97ae                	add	a5,a5,a1
   117b4:	439c                	lw	a5,0(a5)
   117b6:	8782                	jr	a5
   117b8:	431c                	lw	a5,0(a4)
   117ba:	04240493          	add	s1,s0,66
   117be:	00478693          	add	a3,a5,4
   117c2:	439c                	lw	a5,0(a5)
   117c4:	c314                	sw	a3,0(a4)
   117c6:	04f40123          	sb	a5,66(s0)
   117ca:	4785                	li	a5,1
   117cc:	aa49                	j	1195e <_printf_i+0x20c>
   117ce:	401c                	lw	a5,0(s0)
   117d0:	4308                	lw	a0,0(a4)
   117d2:	0807f693          	and	a3,a5,128
   117d6:	00450593          	add	a1,a0,4
   117da:	c28d                	beqz	a3,117fc <_printf_i+0xaa>
   117dc:	411c                	lw	a5,0(a0)
   117de:	c30c                	sw	a1,0(a4)
   117e0:	00023837          	lui	a6,0x23
   117e4:	0007d863          	bgez	a5,117f4 <_printf_i+0xa2>
   117e8:	02d00713          	li	a4,45
   117ec:	40f007b3          	neg	a5,a5
   117f0:	04e401a3          	sb	a4,67(s0)
   117f4:	40c80813          	add	a6,a6,1036 # 2340c <conv2_weights+0x2730>
   117f8:	4729                	li	a4,10
   117fa:	a091                	j	1183e <_printf_i+0xec>
   117fc:	0407f693          	and	a3,a5,64
   11800:	411c                	lw	a5,0(a0)
   11802:	c30c                	sw	a1,0(a4)
   11804:	def1                	beqz	a3,117e0 <_printf_i+0x8e>
   11806:	07c2                	sll	a5,a5,0x10
   11808:	87c1                	sra	a5,a5,0x10
   1180a:	bfd9                	j	117e0 <_printf_i+0x8e>
   1180c:	4008                	lw	a0,0(s0)
   1180e:	430c                	lw	a1,0(a4)
   11810:	08057813          	and	a6,a0,128
   11814:	419c                	lw	a5,0(a1)
   11816:	0591                	add	a1,a1,4
   11818:	00081763          	bnez	a6,11826 <_printf_i+0xd4>
   1181c:	04057513          	and	a0,a0,64
   11820:	c119                	beqz	a0,11826 <_printf_i+0xd4>
   11822:	07c2                	sll	a5,a5,0x10
   11824:	83c1                	srl	a5,a5,0x10
   11826:	c30c                	sw	a1,0(a4)
   11828:	00023837          	lui	a6,0x23
   1182c:	06f00713          	li	a4,111
   11830:	40c80813          	add	a6,a6,1036 # 2340c <conv2_weights+0x2730>
   11834:	0ce69e63          	bne	a3,a4,11910 <_printf_i+0x1be>
   11838:	4721                	li	a4,8
   1183a:	040401a3          	sb	zero,67(s0)
   1183e:	4054                	lw	a3,4(s0)
   11840:	c414                	sw	a3,8(s0)
   11842:	0006c863          	bltz	a3,11852 <_printf_i+0x100>
   11846:	400c                	lw	a1,0(s0)
   11848:	8edd                	or	a3,a3,a5
   1184a:	84b2                	mv	s1,a2
   1184c:	99ed                	and	a1,a1,-5
   1184e:	c00c                	sw	a1,0(s0)
   11850:	ce99                	beqz	a3,1186e <_printf_i+0x11c>
   11852:	84b2                	mv	s1,a2
   11854:	02e7f6b3          	remu	a3,a5,a4
   11858:	14fd                	add	s1,s1,-1
   1185a:	96c2                	add	a3,a3,a6
   1185c:	0006c683          	lbu	a3,0(a3)
   11860:	00d48023          	sb	a3,0(s1)
   11864:	86be                	mv	a3,a5
   11866:	02e7d7b3          	divu	a5,a5,a4
   1186a:	fee6f5e3          	bgeu	a3,a4,11854 <_printf_i+0x102>
   1186e:	47a1                	li	a5,8
   11870:	00f71e63          	bne	a4,a5,1188c <_printf_i+0x13a>
   11874:	401c                	lw	a5,0(s0)
   11876:	8b85                	and	a5,a5,1
   11878:	cb91                	beqz	a5,1188c <_printf_i+0x13a>
   1187a:	4058                	lw	a4,4(s0)
   1187c:	481c                	lw	a5,16(s0)
   1187e:	00e7c763          	blt	a5,a4,1188c <_printf_i+0x13a>
   11882:	03000793          	li	a5,48
   11886:	fef48fa3          	sb	a5,-1(s1)
   1188a:	14fd                	add	s1,s1,-1
   1188c:	8e05                	sub	a2,a2,s1
   1188e:	c810                	sw	a2,16(s0)
   11890:	8752                	mv	a4,s4
   11892:	86ce                	mv	a3,s3
   11894:	0070                	add	a2,sp,12
   11896:	85a2                	mv	a1,s0
   11898:	854a                	mv	a0,s2
   1189a:	3365                	jal	11642 <_printf_common>
   1189c:	5afd                	li	s5,-1
   1189e:	0d551463          	bne	a0,s5,11966 <_printf_i+0x214>
   118a2:	557d                	li	a0,-1
   118a4:	50b2                	lw	ra,44(sp)
   118a6:	5422                	lw	s0,40(sp)
   118a8:	5492                	lw	s1,36(sp)
   118aa:	5902                	lw	s2,32(sp)
   118ac:	49f2                	lw	s3,28(sp)
   118ae:	4a62                	lw	s4,24(sp)
   118b0:	4ad2                	lw	s5,20(sp)
   118b2:	4b42                	lw	s6,16(sp)
   118b4:	6145                	add	sp,sp,48
   118b6:	8082                	ret
   118b8:	401c                	lw	a5,0(s0)
   118ba:	0207e793          	or	a5,a5,32
   118be:	c01c                	sw	a5,0(s0)
   118c0:	00023837          	lui	a6,0x23
   118c4:	07800693          	li	a3,120
   118c8:	42080813          	add	a6,a6,1056 # 23420 <conv2_weights+0x2744>
   118cc:	04d402a3          	sb	a3,69(s0)
   118d0:	4014                	lw	a3,0(s0)
   118d2:	430c                	lw	a1,0(a4)
   118d4:	0806f513          	and	a0,a3,128
   118d8:	419c                	lw	a5,0(a1)
   118da:	0591                	add	a1,a1,4
   118dc:	e511                	bnez	a0,118e8 <_printf_i+0x196>
   118de:	0406f513          	and	a0,a3,64
   118e2:	c119                	beqz	a0,118e8 <_printf_i+0x196>
   118e4:	07c2                	sll	a5,a5,0x10
   118e6:	83c1                	srl	a5,a5,0x10
   118e8:	c30c                	sw	a1,0(a4)
   118ea:	0016f713          	and	a4,a3,1
   118ee:	c701                	beqz	a4,118f6 <_printf_i+0x1a4>
   118f0:	0206e693          	or	a3,a3,32
   118f4:	c014                	sw	a3,0(s0)
   118f6:	cb81                	beqz	a5,11906 <_printf_i+0x1b4>
   118f8:	4741                	li	a4,16
   118fa:	b781                	j	1183a <_printf_i+0xe8>
   118fc:	00023837          	lui	a6,0x23
   11900:	40c80813          	add	a6,a6,1036 # 2340c <conv2_weights+0x2730>
   11904:	b7e1                	j	118cc <_printf_i+0x17a>
   11906:	4018                	lw	a4,0(s0)
   11908:	fdf77713          	and	a4,a4,-33
   1190c:	c018                	sw	a4,0(s0)
   1190e:	b7ed                	j	118f8 <_printf_i+0x1a6>
   11910:	4729                	li	a4,10
   11912:	b725                	j	1183a <_printf_i+0xe8>
   11914:	4014                	lw	a3,0(s0)
   11916:	431c                	lw	a5,0(a4)
   11918:	484c                	lw	a1,20(s0)
   1191a:	0806f813          	and	a6,a3,128
   1191e:	00478513          	add	a0,a5,4
   11922:	00080663          	beqz	a6,1192e <_printf_i+0x1dc>
   11926:	c308                	sw	a0,0(a4)
   11928:	439c                	lw	a5,0(a5)
   1192a:	c38c                	sw	a1,0(a5)
   1192c:	a801                	j	1193c <_printf_i+0x1ea>
   1192e:	c308                	sw	a0,0(a4)
   11930:	0406f693          	and	a3,a3,64
   11934:	439c                	lw	a5,0(a5)
   11936:	daf5                	beqz	a3,1192a <_printf_i+0x1d8>
   11938:	00b79023          	sh	a1,0(a5)
   1193c:	00042823          	sw	zero,16(s0)
   11940:	84b2                	mv	s1,a2
   11942:	b7b9                	j	11890 <_printf_i+0x13e>
   11944:	431c                	lw	a5,0(a4)
   11946:	4050                	lw	a2,4(s0)
   11948:	4581                	li	a1,0
   1194a:	00478693          	add	a3,a5,4
   1194e:	c314                	sw	a3,0(a4)
   11950:	4384                	lw	s1,0(a5)
   11952:	8526                	mv	a0,s1
   11954:	29f1                	jal	11e30 <memchr>
   11956:	c119                	beqz	a0,1195c <_printf_i+0x20a>
   11958:	8d05                	sub	a0,a0,s1
   1195a:	c048                	sw	a0,4(s0)
   1195c:	405c                	lw	a5,4(s0)
   1195e:	c81c                	sw	a5,16(s0)
   11960:	040401a3          	sb	zero,67(s0)
   11964:	b735                	j	11890 <_printf_i+0x13e>
   11966:	4814                	lw	a3,16(s0)
   11968:	8626                	mv	a2,s1
   1196a:	85ce                	mv	a1,s3
   1196c:	854a                	mv	a0,s2
   1196e:	9a02                	jalr	s4
   11970:	f35509e3          	beq	a0,s5,118a2 <_printf_i+0x150>
   11974:	401c                	lw	a5,0(s0)
   11976:	8b89                	and	a5,a5,2
   11978:	e78d                	bnez	a5,119a2 <_printf_i+0x250>
   1197a:	47b2                	lw	a5,12(sp)
   1197c:	4448                	lw	a0,12(s0)
   1197e:	f2f553e3          	bge	a0,a5,118a4 <_printf_i+0x152>
   11982:	853e                	mv	a0,a5
   11984:	b705                	j	118a4 <_printf_i+0x152>
   11986:	4685                	li	a3,1
   11988:	8656                	mv	a2,s5
   1198a:	85ce                	mv	a1,s3
   1198c:	854a                	mv	a0,s2
   1198e:	9a02                	jalr	s4
   11990:	f16509e3          	beq	a0,s6,118a2 <_printf_i+0x150>
   11994:	0485                	add	s1,s1,1
   11996:	445c                	lw	a5,12(s0)
   11998:	4732                	lw	a4,12(sp)
   1199a:	8f99                	sub	a5,a5,a4
   1199c:	fef4c5e3          	blt	s1,a5,11986 <_printf_i+0x234>
   119a0:	bfe9                	j	1197a <_printf_i+0x228>
   119a2:	4481                	li	s1,0
   119a4:	01940a93          	add	s5,s0,25
   119a8:	5b7d                	li	s6,-1
   119aa:	b7f5                	j	11996 <_printf_i+0x244>

000119ac <_sbrk_r>:
   119ac:	1141                	add	sp,sp,-16
   119ae:	c422                	sw	s0,8(sp)
   119b0:	c226                	sw	s1,4(sp)
   119b2:	842a                	mv	s0,a0
   119b4:	852e                	mv	a0,a1
   119b6:	c606                	sw	ra,12(sp)
   119b8:	ac01a623          	sw	zero,-1332(gp) # 242d8 <errno>
   119bc:	75c000ef          	jal	12118 <_sbrk>
   119c0:	57fd                	li	a5,-1
   119c2:	00f51663          	bne	a0,a5,119ce <_sbrk_r+0x22>
   119c6:	acc1a783          	lw	a5,-1332(gp) # 242d8 <errno>
   119ca:	c391                	beqz	a5,119ce <_sbrk_r+0x22>
   119cc:	c01c                	sw	a5,0(s0)
   119ce:	40b2                	lw	ra,12(sp)
   119d0:	4422                	lw	s0,8(sp)
   119d2:	4492                	lw	s1,4(sp)
   119d4:	0141                	add	sp,sp,16
   119d6:	8082                	ret

000119d8 <__sread>:
   119d8:	1141                	add	sp,sp,-16
   119da:	c422                	sw	s0,8(sp)
   119dc:	842e                	mv	s0,a1
   119de:	00e59583          	lh	a1,14(a1)
   119e2:	c606                	sw	ra,12(sp)
   119e4:	2339                	jal	11ef2 <_read_r>
   119e6:	00054963          	bltz	a0,119f8 <__sread+0x20>
   119ea:	487c                	lw	a5,84(s0)
   119ec:	97aa                	add	a5,a5,a0
   119ee:	c87c                	sw	a5,84(s0)
   119f0:	40b2                	lw	ra,12(sp)
   119f2:	4422                	lw	s0,8(sp)
   119f4:	0141                	add	sp,sp,16
   119f6:	8082                	ret
   119f8:	00c45783          	lhu	a5,12(s0)
   119fc:	777d                	lui	a4,0xfffff
   119fe:	177d                	add	a4,a4,-1 # ffffefff <__BSS_END__+0xfffda493>
   11a00:	8ff9                	and	a5,a5,a4
   11a02:	00f41623          	sh	a5,12(s0)
   11a06:	b7ed                	j	119f0 <__sread+0x18>

00011a08 <__seofread>:
   11a08:	4501                	li	a0,0
   11a0a:	8082                	ret

00011a0c <__swrite>:
   11a0c:	00c5d783          	lhu	a5,12(a1)
   11a10:	1101                	add	sp,sp,-32
   11a12:	cc22                	sw	s0,24(sp)
   11a14:	ca26                	sw	s1,20(sp)
   11a16:	c84a                	sw	s2,16(sp)
   11a18:	c64e                	sw	s3,12(sp)
   11a1a:	ce06                	sw	ra,28(sp)
   11a1c:	1007f793          	and	a5,a5,256
   11a20:	84aa                	mv	s1,a0
   11a22:	842e                	mv	s0,a1
   11a24:	8932                	mv	s2,a2
   11a26:	89b6                	mv	s3,a3
   11a28:	c791                	beqz	a5,11a34 <__swrite+0x28>
   11a2a:	00e59583          	lh	a1,14(a1)
   11a2e:	4689                	li	a3,2
   11a30:	4601                	li	a2,0
   11a32:	2ec1                	jal	11e02 <_lseek_r>
   11a34:	00c45783          	lhu	a5,12(s0)
   11a38:	777d                	lui	a4,0xfffff
   11a3a:	177d                	add	a4,a4,-1 # ffffefff <__BSS_END__+0xfffda493>
   11a3c:	8ff9                	and	a5,a5,a4
   11a3e:	00e41583          	lh	a1,14(s0)
   11a42:	00f41623          	sh	a5,12(s0)
   11a46:	4462                	lw	s0,24(sp)
   11a48:	40f2                	lw	ra,28(sp)
   11a4a:	86ce                	mv	a3,s3
   11a4c:	864a                	mv	a2,s2
   11a4e:	49b2                	lw	s3,12(sp)
   11a50:	4942                	lw	s2,16(sp)
   11a52:	8526                	mv	a0,s1
   11a54:	44d2                	lw	s1,20(sp)
   11a56:	6105                	add	sp,sp,32
   11a58:	a83d                	j	11a96 <_write_r>

00011a5a <__sseek>:
   11a5a:	1141                	add	sp,sp,-16
   11a5c:	c422                	sw	s0,8(sp)
   11a5e:	842e                	mv	s0,a1
   11a60:	00e59583          	lh	a1,14(a1)
   11a64:	c606                	sw	ra,12(sp)
   11a66:	2e71                	jal	11e02 <_lseek_r>
   11a68:	577d                	li	a4,-1
   11a6a:	00c45783          	lhu	a5,12(s0)
   11a6e:	00e51b63          	bne	a0,a4,11a84 <__sseek+0x2a>
   11a72:	777d                	lui	a4,0xfffff
   11a74:	177d                	add	a4,a4,-1 # ffffefff <__BSS_END__+0xfffda493>
   11a76:	8ff9                	and	a5,a5,a4
   11a78:	00f41623          	sh	a5,12(s0)
   11a7c:	40b2                	lw	ra,12(sp)
   11a7e:	4422                	lw	s0,8(sp)
   11a80:	0141                	add	sp,sp,16
   11a82:	8082                	ret
   11a84:	6705                	lui	a4,0x1
   11a86:	8fd9                	or	a5,a5,a4
   11a88:	00f41623          	sh	a5,12(s0)
   11a8c:	c868                	sw	a0,84(s0)
   11a8e:	b7fd                	j	11a7c <__sseek+0x22>

00011a90 <__sclose>:
   11a90:	00e59583          	lh	a1,14(a1)
   11a94:	a805                	j	11ac4 <_close_r>

00011a96 <_write_r>:
   11a96:	1141                	add	sp,sp,-16
   11a98:	c422                	sw	s0,8(sp)
   11a9a:	c226                	sw	s1,4(sp)
   11a9c:	842a                	mv	s0,a0
   11a9e:	852e                	mv	a0,a1
   11aa0:	85b2                	mv	a1,a2
   11aa2:	8636                	mv	a2,a3
   11aa4:	c606                	sw	ra,12(sp)
   11aa6:	ac01a623          	sw	zero,-1332(gp) # 242d8 <errno>
   11aaa:	2d65                	jal	12162 <_write>
   11aac:	57fd                	li	a5,-1
   11aae:	00f51663          	bne	a0,a5,11aba <_write_r+0x24>
   11ab2:	acc1a783          	lw	a5,-1332(gp) # 242d8 <errno>
   11ab6:	c391                	beqz	a5,11aba <_write_r+0x24>
   11ab8:	c01c                	sw	a5,0(s0)
   11aba:	40b2                	lw	ra,12(sp)
   11abc:	4422                	lw	s0,8(sp)
   11abe:	4492                	lw	s1,4(sp)
   11ac0:	0141                	add	sp,sp,16
   11ac2:	8082                	ret

00011ac4 <_close_r>:
   11ac4:	1141                	add	sp,sp,-16
   11ac6:	c422                	sw	s0,8(sp)
   11ac8:	c226                	sw	s1,4(sp)
   11aca:	842a                	mv	s0,a0
   11acc:	852e                	mv	a0,a1
   11ace:	c606                	sw	ra,12(sp)
   11ad0:	ac01a623          	sw	zero,-1332(gp) # 242d8 <errno>
   11ad4:	2ba1                	jal	1202c <_close>
   11ad6:	57fd                	li	a5,-1
   11ad8:	00f51663          	bne	a0,a5,11ae4 <_close_r+0x20>
   11adc:	acc1a783          	lw	a5,-1332(gp) # 242d8 <errno>
   11ae0:	c391                	beqz	a5,11ae4 <_close_r+0x20>
   11ae2:	c01c                	sw	a5,0(s0)
   11ae4:	40b2                	lw	ra,12(sp)
   11ae6:	4422                	lw	s0,8(sp)
   11ae8:	4492                	lw	s1,4(sp)
   11aea:	0141                	add	sp,sp,16
   11aec:	8082                	ret

00011aee <_fstat_r>:
   11aee:	1141                	add	sp,sp,-16
   11af0:	c422                	sw	s0,8(sp)
   11af2:	c226                	sw	s1,4(sp)
   11af4:	842a                	mv	s0,a0
   11af6:	852e                	mv	a0,a1
   11af8:	85b2                	mv	a1,a2
   11afa:	c606                	sw	ra,12(sp)
   11afc:	ac01a623          	sw	zero,-1332(gp) # 242d8 <errno>
   11b00:	2b95                	jal	12074 <_fstat>
   11b02:	57fd                	li	a5,-1
   11b04:	00f51663          	bne	a0,a5,11b10 <_fstat_r+0x22>
   11b08:	acc1a783          	lw	a5,-1332(gp) # 242d8 <errno>
   11b0c:	c391                	beqz	a5,11b10 <_fstat_r+0x22>
   11b0e:	c01c                	sw	a5,0(s0)
   11b10:	40b2                	lw	ra,12(sp)
   11b12:	4422                	lw	s0,8(sp)
   11b14:	4492                	lw	s1,4(sp)
   11b16:	0141                	add	sp,sp,16
   11b18:	8082                	ret

00011b1a <__sfvwrite_r>:
   11b1a:	461c                	lw	a5,8(a2)
   11b1c:	e399                	bnez	a5,11b22 <__sfvwrite_r+0x8>
   11b1e:	4501                	li	a0,0
   11b20:	8082                	ret
   11b22:	00c5d783          	lhu	a5,12(a1)
   11b26:	7139                	add	sp,sp,-64
   11b28:	dc22                	sw	s0,56(sp)
   11b2a:	d64e                	sw	s3,44(sp)
   11b2c:	d256                	sw	s5,36(sp)
   11b2e:	de06                	sw	ra,60(sp)
   11b30:	da26                	sw	s1,52(sp)
   11b32:	d84a                	sw	s2,48(sp)
   11b34:	d452                	sw	s4,40(sp)
   11b36:	d05a                	sw	s6,32(sp)
   11b38:	ce5e                	sw	s7,28(sp)
   11b3a:	cc62                	sw	s8,24(sp)
   11b3c:	ca66                	sw	s9,20(sp)
   11b3e:	c86a                	sw	s10,16(sp)
   11b40:	c66e                	sw	s11,12(sp)
   11b42:	8ba1                	and	a5,a5,8
   11b44:	89aa                	mv	s3,a0
   11b46:	842e                	mv	s0,a1
   11b48:	8ab2                	mv	s5,a2
   11b4a:	cbd9                	beqz	a5,11be0 <__sfvwrite_r+0xc6>
   11b4c:	499c                	lw	a5,16(a1)
   11b4e:	cbc9                	beqz	a5,11be0 <__sfvwrite_r+0xc6>
   11b50:	00c41783          	lh	a5,12(s0)
   11b54:	000aaa03          	lw	s4,0(s5)
   11b58:	0027f713          	and	a4,a5,2
   11b5c:	e375                	bnez	a4,11c40 <__sfvwrite_r+0x126>
   11b5e:	8b85                	and	a5,a5,1
   11b60:	14078c63          	beqz	a5,11cb8 <__sfvwrite_r+0x19e>
   11b64:	4b81                	li	s7,0
   11b66:	4501                	li	a0,0
   11b68:	4b01                	li	s6,0
   11b6a:	4901                	li	s2,0
   11b6c:	22090863          	beqz	s2,11d9c <__sfvwrite_r+0x282>
   11b70:	e919                	bnez	a0,11b86 <__sfvwrite_r+0x6c>
   11b72:	864a                	mv	a2,s2
   11b74:	45a9                	li	a1,10
   11b76:	855a                	mv	a0,s6
   11b78:	2c65                	jal	11e30 <memchr>
   11b7a:	00190b93          	add	s7,s2,1
   11b7e:	c501                	beqz	a0,11b86 <__sfvwrite_r+0x6c>
   11b80:	0505                	add	a0,a0,1
   11b82:	41650bb3          	sub	s7,a0,s6
   11b86:	8c5e                	mv	s8,s7
   11b88:	01797363          	bgeu	s2,s7,11b8e <__sfvwrite_r+0x74>
   11b8c:	8c4a                	mv	s8,s2
   11b8e:	4008                	lw	a0,0(s0)
   11b90:	481c                	lw	a5,16(s0)
   11b92:	4404                	lw	s1,8(s0)
   11b94:	4854                	lw	a3,20(s0)
   11b96:	20a7fa63          	bgeu	a5,a0,11daa <__sfvwrite_r+0x290>
   11b9a:	94b6                	add	s1,s1,a3
   11b9c:	2184d763          	bge	s1,s8,11daa <__sfvwrite_r+0x290>
   11ba0:	85da                	mv	a1,s6
   11ba2:	8626                	mv	a2,s1
   11ba4:	245d                	jal	11e4a <memmove>
   11ba6:	401c                	lw	a5,0(s0)
   11ba8:	85a2                	mv	a1,s0
   11baa:	854e                	mv	a0,s3
   11bac:	97a6                	add	a5,a5,s1
   11bae:	c01c                	sw	a5,0(s0)
   11bb0:	9c2ff0ef          	jal	10d72 <_fflush_r>
   11bb4:	0e051b63          	bnez	a0,11caa <__sfvwrite_r+0x190>
   11bb8:	409b8bb3          	sub	s7,s7,s1
   11bbc:	4505                	li	a0,1
   11bbe:	000b9763          	bnez	s7,11bcc <__sfvwrite_r+0xb2>
   11bc2:	85a2                	mv	a1,s0
   11bc4:	854e                	mv	a0,s3
   11bc6:	9acff0ef          	jal	10d72 <_fflush_r>
   11bca:	e165                	bnez	a0,11caa <__sfvwrite_r+0x190>
   11bcc:	008aa783          	lw	a5,8(s5)
   11bd0:	9b26                	add	s6,s6,s1
   11bd2:	40990933          	sub	s2,s2,s1
   11bd6:	8f85                	sub	a5,a5,s1
   11bd8:	00faa423          	sw	a5,8(s5)
   11bdc:	fbc1                	bnez	a5,11b6c <__sfvwrite_r+0x52>
   11bde:	a089                	j	11c20 <__sfvwrite_r+0x106>
   11be0:	85a2                	mv	a1,s0
   11be2:	854e                	mv	a0,s3
   11be4:	f5bfe0ef          	jal	10b3e <__swsetup_r>
   11be8:	d525                	beqz	a0,11b50 <__sfvwrite_r+0x36>
   11bea:	557d                	li	a0,-1
   11bec:	a81d                	j	11c22 <__sfvwrite_r+0x108>
   11bee:	000a2903          	lw	s2,0(s4)
   11bf2:	004a2483          	lw	s1,4(s4)
   11bf6:	0a21                	add	s4,s4,8
   11bf8:	541c                	lw	a5,40(s0)
   11bfa:	500c                	lw	a1,32(s0)
   11bfc:	d8ed                	beqz	s1,11bee <__sfvwrite_r+0xd4>
   11bfe:	86a6                	mv	a3,s1
   11c00:	009b7363          	bgeu	s6,s1,11c06 <__sfvwrite_r+0xec>
   11c04:	86da                	mv	a3,s6
   11c06:	864a                	mv	a2,s2
   11c08:	854e                	mv	a0,s3
   11c0a:	9782                	jalr	a5
   11c0c:	08a05f63          	blez	a0,11caa <__sfvwrite_r+0x190>
   11c10:	008aa783          	lw	a5,8(s5)
   11c14:	992a                	add	s2,s2,a0
   11c16:	8c89                	sub	s1,s1,a0
   11c18:	8f89                	sub	a5,a5,a0
   11c1a:	00faa423          	sw	a5,8(s5)
   11c1e:	ffe9                	bnez	a5,11bf8 <__sfvwrite_r+0xde>
   11c20:	4501                	li	a0,0
   11c22:	50f2                	lw	ra,60(sp)
   11c24:	5462                	lw	s0,56(sp)
   11c26:	54d2                	lw	s1,52(sp)
   11c28:	5942                	lw	s2,48(sp)
   11c2a:	59b2                	lw	s3,44(sp)
   11c2c:	5a22                	lw	s4,40(sp)
   11c2e:	5a92                	lw	s5,36(sp)
   11c30:	5b02                	lw	s6,32(sp)
   11c32:	4bf2                	lw	s7,28(sp)
   11c34:	4c62                	lw	s8,24(sp)
   11c36:	4cd2                	lw	s9,20(sp)
   11c38:	4d42                	lw	s10,16(sp)
   11c3a:	4db2                	lw	s11,12(sp)
   11c3c:	6121                	add	sp,sp,64
   11c3e:	8082                	ret
   11c40:	80000b37          	lui	s6,0x80000
   11c44:	4901                	li	s2,0
   11c46:	4481                	li	s1,0
   11c48:	c00b0b13          	add	s6,s6,-1024 # 7ffffc00 <__BSS_END__+0x7ffdb094>
   11c4c:	b775                	j	11bf8 <__sfvwrite_r+0xde>
   11c4e:	000a2b03          	lw	s6,0(s4)
   11c52:	004a2903          	lw	s2,4(s4)
   11c56:	0a21                	add	s4,s4,8
   11c58:	00c41783          	lh	a5,12(s0)
   11c5c:	4008                	lw	a0,0(s0)
   11c5e:	00842d03          	lw	s10,8(s0)
   11c62:	fe0906e3          	beqz	s2,11c4e <__sfvwrite_r+0x134>
   11c66:	2007f713          	and	a4,a5,512
   11c6a:	cf71                	beqz	a4,11d46 <__sfvwrite_r+0x22c>
   11c6c:	09a96463          	bltu	s2,s10,11cf4 <__sfvwrite_r+0x1da>
   11c70:	4807f713          	and	a4,a5,1152
   11c74:	c341                	beqz	a4,11cf4 <__sfvwrite_r+0x1da>
   11c76:	4844                	lw	s1,20(s0)
   11c78:	480c                	lw	a1,16(s0)
   11c7a:	029c04b3          	mul	s1,s8,s1
   11c7e:	40b50db3          	sub	s11,a0,a1
   11c82:	001d8713          	add	a4,s11,1
   11c86:	974a                	add	a4,a4,s2
   11c88:	0394c4b3          	div	s1,s1,s9
   11c8c:	00e4f363          	bgeu	s1,a4,11c92 <__sfvwrite_r+0x178>
   11c90:	84ba                	mv	s1,a4
   11c92:	4007f793          	and	a5,a5,1024
   11c96:	cbc1                	beqz	a5,11d26 <__sfvwrite_r+0x20c>
   11c98:	85a6                	mv	a1,s1
   11c9a:	854e                	mv	a0,s3
   11c9c:	d94ff0ef          	jal	11230 <_malloc_r>
   11ca0:	8d2a                	mv	s10,a0
   11ca2:	e11d                	bnez	a0,11cc8 <__sfvwrite_r+0x1ae>
   11ca4:	47b1                	li	a5,12
   11ca6:	00f9a023          	sw	a5,0(s3)
   11caa:	00c45783          	lhu	a5,12(s0)
   11cae:	0407e793          	or	a5,a5,64
   11cb2:	00f41623          	sh	a5,12(s0)
   11cb6:	bf15                	j	11bea <__sfvwrite_r+0xd0>
   11cb8:	80000bb7          	lui	s7,0x80000
   11cbc:	4b01                	li	s6,0
   11cbe:	4901                	li	s2,0
   11cc0:	1bfd                	add	s7,s7,-1 # 7fffffff <__BSS_END__+0x7ffdb493>
   11cc2:	4c0d                	li	s8,3
   11cc4:	4c89                	li	s9,2
   11cc6:	bf49                	j	11c58 <__sfvwrite_r+0x13e>
   11cc8:	480c                	lw	a1,16(s0)
   11cca:	866e                	mv	a2,s11
   11ccc:	c27fe0ef          	jal	108f2 <memcpy>
   11cd0:	00c45783          	lhu	a5,12(s0)
   11cd4:	b7f7f793          	and	a5,a5,-1153
   11cd8:	0807e793          	or	a5,a5,128
   11cdc:	00f41623          	sh	a5,12(s0)
   11ce0:	01a42823          	sw	s10,16(s0)
   11ce4:	c844                	sw	s1,20(s0)
   11ce6:	9d6e                	add	s10,s10,s11
   11ce8:	41b484b3          	sub	s1,s1,s11
   11cec:	01a42023          	sw	s10,0(s0)
   11cf0:	c404                	sw	s1,8(s0)
   11cf2:	8d4a                	mv	s10,s2
   11cf4:	84ca                	mv	s1,s2
   11cf6:	01a97363          	bgeu	s2,s10,11cfc <__sfvwrite_r+0x1e2>
   11cfa:	8d4a                	mv	s10,s2
   11cfc:	4008                	lw	a0,0(s0)
   11cfe:	866a                	mv	a2,s10
   11d00:	85da                	mv	a1,s6
   11d02:	22a1                	jal	11e4a <memmove>
   11d04:	441c                	lw	a5,8(s0)
   11d06:	41a787b3          	sub	a5,a5,s10
   11d0a:	c41c                	sw	a5,8(s0)
   11d0c:	401c                	lw	a5,0(s0)
   11d0e:	97ea                	add	a5,a5,s10
   11d10:	c01c                	sw	a5,0(s0)
   11d12:	008aa783          	lw	a5,8(s5)
   11d16:	9b26                	add	s6,s6,s1
   11d18:	40990933          	sub	s2,s2,s1
   11d1c:	8f85                	sub	a5,a5,s1
   11d1e:	00faa423          	sw	a5,8(s5)
   11d22:	fb9d                	bnez	a5,11c58 <__sfvwrite_r+0x13e>
   11d24:	bdf5                	j	11c20 <__sfvwrite_r+0x106>
   11d26:	8626                	mv	a2,s1
   11d28:	854e                	mv	a0,s3
   11d2a:	22a9                	jal	11e74 <_realloc_r>
   11d2c:	8d2a                	mv	s10,a0
   11d2e:	f94d                	bnez	a0,11ce0 <__sfvwrite_r+0x1c6>
   11d30:	480c                	lw	a1,16(s0)
   11d32:	854e                	mv	a0,s3
   11d34:	c5aff0ef          	jal	1118e <_free_r>
   11d38:	00c45783          	lhu	a5,12(s0)
   11d3c:	f7f7f793          	and	a5,a5,-129
   11d40:	00f41623          	sh	a5,12(s0)
   11d44:	b785                	j	11ca4 <__sfvwrite_r+0x18a>
   11d46:	481c                	lw	a5,16(s0)
   11d48:	00a7e563          	bltu	a5,a0,11d52 <__sfvwrite_r+0x238>
   11d4c:	4854                	lw	a3,20(s0)
   11d4e:	02d97663          	bgeu	s2,a3,11d7a <__sfvwrite_r+0x260>
   11d52:	84ea                	mv	s1,s10
   11d54:	01a97363          	bgeu	s2,s10,11d5a <__sfvwrite_r+0x240>
   11d58:	84ca                	mv	s1,s2
   11d5a:	8626                	mv	a2,s1
   11d5c:	85da                	mv	a1,s6
   11d5e:	20f5                	jal	11e4a <memmove>
   11d60:	441c                	lw	a5,8(s0)
   11d62:	4018                	lw	a4,0(s0)
   11d64:	8f85                	sub	a5,a5,s1
   11d66:	9726                	add	a4,a4,s1
   11d68:	c41c                	sw	a5,8(s0)
   11d6a:	c018                	sw	a4,0(s0)
   11d6c:	f3dd                	bnez	a5,11d12 <__sfvwrite_r+0x1f8>
   11d6e:	85a2                	mv	a1,s0
   11d70:	854e                	mv	a0,s3
   11d72:	800ff0ef          	jal	10d72 <_fflush_r>
   11d76:	dd51                	beqz	a0,11d12 <__sfvwrite_r+0x1f8>
   11d78:	bf0d                	j	11caa <__sfvwrite_r+0x190>
   11d7a:	87ca                	mv	a5,s2
   11d7c:	012bf363          	bgeu	s7,s2,11d82 <__sfvwrite_r+0x268>
   11d80:	87de                	mv	a5,s7
   11d82:	02d7c7b3          	div	a5,a5,a3
   11d86:	5418                	lw	a4,40(s0)
   11d88:	500c                	lw	a1,32(s0)
   11d8a:	865a                	mv	a2,s6
   11d8c:	854e                	mv	a0,s3
   11d8e:	02d786b3          	mul	a3,a5,a3
   11d92:	9702                	jalr	a4
   11d94:	84aa                	mv	s1,a0
   11d96:	f6a04ee3          	bgtz	a0,11d12 <__sfvwrite_r+0x1f8>
   11d9a:	bf01                	j	11caa <__sfvwrite_r+0x190>
   11d9c:	000a2b03          	lw	s6,0(s4)
   11da0:	004a2903          	lw	s2,4(s4)
   11da4:	4501                	li	a0,0
   11da6:	0a21                	add	s4,s4,8
   11da8:	b3d1                	j	11b6c <__sfvwrite_r+0x52>
   11daa:	00dc4b63          	blt	s8,a3,11dc0 <__sfvwrite_r+0x2a6>
   11dae:	541c                	lw	a5,40(s0)
   11db0:	500c                	lw	a1,32(s0)
   11db2:	865a                	mv	a2,s6
   11db4:	854e                	mv	a0,s3
   11db6:	9782                	jalr	a5
   11db8:	84aa                	mv	s1,a0
   11dba:	dea04fe3          	bgtz	a0,11bb8 <__sfvwrite_r+0x9e>
   11dbe:	b5f5                	j	11caa <__sfvwrite_r+0x190>
   11dc0:	8662                	mv	a2,s8
   11dc2:	85da                	mv	a1,s6
   11dc4:	2059                	jal	11e4a <memmove>
   11dc6:	441c                	lw	a5,8(s0)
   11dc8:	84e2                	mv	s1,s8
   11dca:	418787b3          	sub	a5,a5,s8
   11dce:	c41c                	sw	a5,8(s0)
   11dd0:	401c                	lw	a5,0(s0)
   11dd2:	97e2                	add	a5,a5,s8
   11dd4:	c01c                	sw	a5,0(s0)
   11dd6:	b3cd                	j	11bb8 <__sfvwrite_r+0x9e>

00011dd8 <_isatty_r>:
   11dd8:	1141                	add	sp,sp,-16
   11dda:	c422                	sw	s0,8(sp)
   11ddc:	c226                	sw	s1,4(sp)
   11dde:	842a                	mv	s0,a0
   11de0:	852e                	mv	a0,a1
   11de2:	c606                	sw	ra,12(sp)
   11de4:	ac01a623          	sw	zero,-1332(gp) # 242d8 <errno>
   11de8:	24c9                	jal	120aa <_isatty>
   11dea:	57fd                	li	a5,-1
   11dec:	00f51663          	bne	a0,a5,11df8 <_isatty_r+0x20>
   11df0:	acc1a783          	lw	a5,-1332(gp) # 242d8 <errno>
   11df4:	c391                	beqz	a5,11df8 <_isatty_r+0x20>
   11df6:	c01c                	sw	a5,0(s0)
   11df8:	40b2                	lw	ra,12(sp)
   11dfa:	4422                	lw	s0,8(sp)
   11dfc:	4492                	lw	s1,4(sp)
   11dfe:	0141                	add	sp,sp,16
   11e00:	8082                	ret

00011e02 <_lseek_r>:
   11e02:	1141                	add	sp,sp,-16
   11e04:	c422                	sw	s0,8(sp)
   11e06:	c226                	sw	s1,4(sp)
   11e08:	842a                	mv	s0,a0
   11e0a:	852e                	mv	a0,a1
   11e0c:	85b2                	mv	a1,a2
   11e0e:	8636                	mv	a2,a3
   11e10:	c606                	sw	ra,12(sp)
   11e12:	ac01a623          	sw	zero,-1332(gp) # 242d8 <errno>
   11e16:	2c4d                	jal	120c8 <_lseek>
   11e18:	57fd                	li	a5,-1
   11e1a:	00f51663          	bne	a0,a5,11e26 <_lseek_r+0x24>
   11e1e:	acc1a783          	lw	a5,-1332(gp) # 242d8 <errno>
   11e22:	c391                	beqz	a5,11e26 <_lseek_r+0x24>
   11e24:	c01c                	sw	a5,0(s0)
   11e26:	40b2                	lw	ra,12(sp)
   11e28:	4422                	lw	s0,8(sp)
   11e2a:	4492                	lw	s1,4(sp)
   11e2c:	0141                	add	sp,sp,16
   11e2e:	8082                	ret

00011e30 <memchr>:
   11e30:	0ff5f593          	zext.b	a1,a1
   11e34:	962a                	add	a2,a2,a0
   11e36:	00c51463          	bne	a0,a2,11e3e <memchr+0xe>
   11e3a:	4501                	li	a0,0
   11e3c:	8082                	ret
   11e3e:	00054783          	lbu	a5,0(a0)
   11e42:	feb78de3          	beq	a5,a1,11e3c <memchr+0xc>
   11e46:	0505                	add	a0,a0,1
   11e48:	b7fd                	j	11e36 <memchr+0x6>

00011e4a <memmove>:
   11e4a:	c215                	beqz	a2,11e6e <memmove+0x24>
   11e4c:	832a                	mv	t1,a0
   11e4e:	4685                	li	a3,1
   11e50:	00b56763          	bltu	a0,a1,11e5e <memmove+0x14>
   11e54:	56fd                	li	a3,-1
   11e56:	fff60713          	add	a4,a2,-1
   11e5a:	933a                	add	t1,t1,a4
   11e5c:	95ba                	add	a1,a1,a4
   11e5e:	00058383          	lb	t2,0(a1)
   11e62:	00730023          	sb	t2,0(t1)
   11e66:	167d                	add	a2,a2,-1
   11e68:	9336                	add	t1,t1,a3
   11e6a:	95b6                	add	a1,a1,a3
   11e6c:	fa6d                	bnez	a2,11e5e <memmove+0x14>
   11e6e:	8082                	ret

00011e70 <__malloc_lock>:
   11e70:	8082                	ret

00011e72 <__malloc_unlock>:
   11e72:	8082                	ret

00011e74 <_realloc_r>:
   11e74:	1101                	add	sp,sp,-32
   11e76:	cc22                	sw	s0,24(sp)
   11e78:	ce06                	sw	ra,28(sp)
   11e7a:	ca26                	sw	s1,20(sp)
   11e7c:	c84a                	sw	s2,16(sp)
   11e7e:	c64e                	sw	s3,12(sp)
   11e80:	c452                	sw	s4,8(sp)
   11e82:	8432                	mv	s0,a2
   11e84:	e999                	bnez	a1,11e9a <_realloc_r+0x26>
   11e86:	4462                	lw	s0,24(sp)
   11e88:	40f2                	lw	ra,28(sp)
   11e8a:	44d2                	lw	s1,20(sp)
   11e8c:	4942                	lw	s2,16(sp)
   11e8e:	49b2                	lw	s3,12(sp)
   11e90:	4a22                	lw	s4,8(sp)
   11e92:	85b2                	mv	a1,a2
   11e94:	6105                	add	sp,sp,32
   11e96:	b9aff06f          	j	11230 <_malloc_r>
   11e9a:	ee09                	bnez	a2,11eb4 <_realloc_r+0x40>
   11e9c:	af2ff0ef          	jal	1118e <_free_r>
   11ea0:	4481                	li	s1,0
   11ea2:	40f2                	lw	ra,28(sp)
   11ea4:	4462                	lw	s0,24(sp)
   11ea6:	4942                	lw	s2,16(sp)
   11ea8:	49b2                	lw	s3,12(sp)
   11eaa:	4a22                	lw	s4,8(sp)
   11eac:	8526                	mv	a0,s1
   11eae:	44d2                	lw	s1,20(sp)
   11eb0:	6105                	add	sp,sp,32
   11eb2:	8082                	ret
   11eb4:	8a2a                	mv	s4,a0
   11eb6:	84ae                	mv	s1,a1
   11eb8:	2285                	jal	12018 <_malloc_usable_size_r>
   11eba:	892a                	mv	s2,a0
   11ebc:	00856663          	bltu	a0,s0,11ec8 <_realloc_r+0x54>
   11ec0:	00155793          	srl	a5,a0,0x1
   11ec4:	fc87efe3          	bltu	a5,s0,11ea2 <_realloc_r+0x2e>
   11ec8:	85a2                	mv	a1,s0
   11eca:	8552                	mv	a0,s4
   11ecc:	b64ff0ef          	jal	11230 <_malloc_r>
   11ed0:	89aa                	mv	s3,a0
   11ed2:	e119                	bnez	a0,11ed8 <_realloc_r+0x64>
   11ed4:	84ce                	mv	s1,s3
   11ed6:	b7f1                	j	11ea2 <_realloc_r+0x2e>
   11ed8:	8622                	mv	a2,s0
   11eda:	00897363          	bgeu	s2,s0,11ee0 <_realloc_r+0x6c>
   11ede:	864a                	mv	a2,s2
   11ee0:	85a6                	mv	a1,s1
   11ee2:	854e                	mv	a0,s3
   11ee4:	a0ffe0ef          	jal	108f2 <memcpy>
   11ee8:	85a6                	mv	a1,s1
   11eea:	8552                	mv	a0,s4
   11eec:	aa2ff0ef          	jal	1118e <_free_r>
   11ef0:	b7d5                	j	11ed4 <_realloc_r+0x60>

00011ef2 <_read_r>:
   11ef2:	1141                	add	sp,sp,-16
   11ef4:	c422                	sw	s0,8(sp)
   11ef6:	c226                	sw	s1,4(sp)
   11ef8:	842a                	mv	s0,a0
   11efa:	852e                	mv	a0,a1
   11efc:	85b2                	mv	a1,a2
   11efe:	8636                	mv	a2,a3
   11f00:	c606                	sw	ra,12(sp)
   11f02:	ac01a623          	sw	zero,-1332(gp) # 242d8 <errno>
   11f06:	22ed                	jal	120f0 <_read>
   11f08:	57fd                	li	a5,-1
   11f0a:	00f51663          	bne	a0,a5,11f16 <_read_r+0x24>
   11f0e:	acc1a783          	lw	a5,-1332(gp) # 242d8 <errno>
   11f12:	c391                	beqz	a5,11f16 <_read_r+0x24>
   11f14:	c01c                	sw	a5,0(s0)
   11f16:	40b2                	lw	ra,12(sp)
   11f18:	4422                	lw	s0,8(sp)
   11f1a:	4492                	lw	s1,4(sp)
   11f1c:	0141                	add	sp,sp,16
   11f1e:	8082                	ret

00011f20 <cleanup_glue>:
   11f20:	1141                	add	sp,sp,-16
   11f22:	c422                	sw	s0,8(sp)
   11f24:	842e                	mv	s0,a1
   11f26:	418c                	lw	a1,0(a1)
   11f28:	c226                	sw	s1,4(sp)
   11f2a:	c606                	sw	ra,12(sp)
   11f2c:	84aa                	mv	s1,a0
   11f2e:	c191                	beqz	a1,11f32 <cleanup_glue+0x12>
   11f30:	3fc5                	jal	11f20 <cleanup_glue>
   11f32:	85a2                	mv	a1,s0
   11f34:	4422                	lw	s0,8(sp)
   11f36:	40b2                	lw	ra,12(sp)
   11f38:	8526                	mv	a0,s1
   11f3a:	4492                	lw	s1,4(sp)
   11f3c:	0141                	add	sp,sp,16
   11f3e:	a50ff06f          	j	1118e <_free_r>

00011f42 <_reclaim_reent>:
   11f42:	abc1a783          	lw	a5,-1348(gp) # 242c8 <_impure_ptr>
   11f46:	0ca78863          	beq	a5,a0,12016 <_reclaim_reent+0xd4>
   11f4a:	515c                	lw	a5,36(a0)
   11f4c:	1101                	add	sp,sp,-32
   11f4e:	cc22                	sw	s0,24(sp)
   11f50:	ce06                	sw	ra,28(sp)
   11f52:	ca26                	sw	s1,20(sp)
   11f54:	c84a                	sw	s2,16(sp)
   11f56:	c64e                	sw	s3,12(sp)
   11f58:	842a                	mv	s0,a0
   11f5a:	cb8d                	beqz	a5,11f8c <_reclaim_reent+0x4a>
   11f5c:	47dc                	lw	a5,12(a5)
   11f5e:	c38d                	beqz	a5,11f80 <_reclaim_reent+0x3e>
   11f60:	4481                	li	s1,0
   11f62:	08000913          	li	s2,128
   11f66:	505c                	lw	a5,36(s0)
   11f68:	47dc                	lw	a5,12(a5)
   11f6a:	97a6                	add	a5,a5,s1
   11f6c:	438c                	lw	a1,0(a5)
   11f6e:	e5d1                	bnez	a1,11ffa <_reclaim_reent+0xb8>
   11f70:	0491                	add	s1,s1,4
   11f72:	ff249ae3          	bne	s1,s2,11f66 <_reclaim_reent+0x24>
   11f76:	505c                	lw	a5,36(s0)
   11f78:	8522                	mv	a0,s0
   11f7a:	47cc                	lw	a1,12(a5)
   11f7c:	a12ff0ef          	jal	1118e <_free_r>
   11f80:	505c                	lw	a5,36(s0)
   11f82:	438c                	lw	a1,0(a5)
   11f84:	c581                	beqz	a1,11f8c <_reclaim_reent+0x4a>
   11f86:	8522                	mv	a0,s0
   11f88:	a06ff0ef          	jal	1118e <_free_r>
   11f8c:	484c                	lw	a1,20(s0)
   11f8e:	c581                	beqz	a1,11f96 <_reclaim_reent+0x54>
   11f90:	8522                	mv	a0,s0
   11f92:	9fcff0ef          	jal	1118e <_free_r>
   11f96:	504c                	lw	a1,36(s0)
   11f98:	c581                	beqz	a1,11fa0 <_reclaim_reent+0x5e>
   11f9a:	8522                	mv	a0,s0
   11f9c:	9f2ff0ef          	jal	1118e <_free_r>
   11fa0:	5c0c                	lw	a1,56(s0)
   11fa2:	c581                	beqz	a1,11faa <_reclaim_reent+0x68>
   11fa4:	8522                	mv	a0,s0
   11fa6:	9e8ff0ef          	jal	1118e <_free_r>
   11faa:	5c4c                	lw	a1,60(s0)
   11fac:	c581                	beqz	a1,11fb4 <_reclaim_reent+0x72>
   11fae:	8522                	mv	a0,s0
   11fb0:	9deff0ef          	jal	1118e <_free_r>
   11fb4:	402c                	lw	a1,64(s0)
   11fb6:	c581                	beqz	a1,11fbe <_reclaim_reent+0x7c>
   11fb8:	8522                	mv	a0,s0
   11fba:	9d4ff0ef          	jal	1118e <_free_r>
   11fbe:	4c6c                	lw	a1,92(s0)
   11fc0:	c581                	beqz	a1,11fc8 <_reclaim_reent+0x86>
   11fc2:	8522                	mv	a0,s0
   11fc4:	9caff0ef          	jal	1118e <_free_r>
   11fc8:	4c2c                	lw	a1,88(s0)
   11fca:	c581                	beqz	a1,11fd2 <_reclaim_reent+0x90>
   11fcc:	8522                	mv	a0,s0
   11fce:	9c0ff0ef          	jal	1118e <_free_r>
   11fd2:	584c                	lw	a1,52(s0)
   11fd4:	c581                	beqz	a1,11fdc <_reclaim_reent+0x9a>
   11fd6:	8522                	mv	a0,s0
   11fd8:	9b6ff0ef          	jal	1118e <_free_r>
   11fdc:	4c1c                	lw	a5,24(s0)
   11fde:	c78d                	beqz	a5,12008 <_reclaim_reent+0xc6>
   11fe0:	541c                	lw	a5,40(s0)
   11fe2:	8522                	mv	a0,s0
   11fe4:	9782                	jalr	a5
   11fe6:	442c                	lw	a1,72(s0)
   11fe8:	c185                	beqz	a1,12008 <_reclaim_reent+0xc6>
   11fea:	8522                	mv	a0,s0
   11fec:	4462                	lw	s0,24(sp)
   11fee:	40f2                	lw	ra,28(sp)
   11ff0:	44d2                	lw	s1,20(sp)
   11ff2:	4942                	lw	s2,16(sp)
   11ff4:	49b2                	lw	s3,12(sp)
   11ff6:	6105                	add	sp,sp,32
   11ff8:	b725                	j	11f20 <cleanup_glue>
   11ffa:	0005a983          	lw	s3,0(a1)
   11ffe:	8522                	mv	a0,s0
   12000:	98eff0ef          	jal	1118e <_free_r>
   12004:	85ce                	mv	a1,s3
   12006:	b7a5                	j	11f6e <_reclaim_reent+0x2c>
   12008:	40f2                	lw	ra,28(sp)
   1200a:	4462                	lw	s0,24(sp)
   1200c:	44d2                	lw	s1,20(sp)
   1200e:	4942                	lw	s2,16(sp)
   12010:	49b2                	lw	s3,12(sp)
   12012:	6105                	add	sp,sp,32
   12014:	8082                	ret
   12016:	8082                	ret

00012018 <_malloc_usable_size_r>:
   12018:	ffc5a783          	lw	a5,-4(a1)
   1201c:	ffc78513          	add	a0,a5,-4
   12020:	0007d563          	bgez	a5,1202a <_malloc_usable_size_r+0x12>
   12024:	95aa                	add	a1,a1,a0
   12026:	419c                	lw	a5,0(a1)
   12028:	953e                	add	a0,a0,a5
   1202a:	8082                	ret

0001202c <_close>:
   1202c:	1141                	add	sp,sp,-16
   1202e:	c606                	sw	ra,12(sp)
   12030:	c422                	sw	s0,8(sp)
   12032:	03900893          	li	a7,57
   12036:	00000073          	ecall
   1203a:	842a                	mv	s0,a0
   1203c:	00055763          	bgez	a0,1204a <_close+0x1e>
   12040:	40800433          	neg	s0,s0
   12044:	2a51                	jal	121d8 <__errno>
   12046:	c100                	sw	s0,0(a0)
   12048:	547d                	li	s0,-1
   1204a:	40b2                	lw	ra,12(sp)
   1204c:	8522                	mv	a0,s0
   1204e:	4422                	lw	s0,8(sp)
   12050:	0141                	add	sp,sp,16
   12052:	8082                	ret

00012054 <_exit>:
   12054:	05d00893          	li	a7,93
   12058:	00000073          	ecall
   1205c:	00055b63          	bgez	a0,12072 <_exit+0x1e>
   12060:	1141                	add	sp,sp,-16
   12062:	c422                	sw	s0,8(sp)
   12064:	842a                	mv	s0,a0
   12066:	c606                	sw	ra,12(sp)
   12068:	40800433          	neg	s0,s0
   1206c:	22b5                	jal	121d8 <__errno>
   1206e:	c100                	sw	s0,0(a0)
   12070:	a001                	j	12070 <_exit+0x1c>
   12072:	a001                	j	12072 <_exit+0x1e>

00012074 <_fstat>:
   12074:	7175                	add	sp,sp,-144
   12076:	c326                	sw	s1,132(sp)
   12078:	c706                	sw	ra,140(sp)
   1207a:	84ae                	mv	s1,a1
   1207c:	c522                	sw	s0,136(sp)
   1207e:	05000893          	li	a7,80
   12082:	858a                	mv	a1,sp
   12084:	00000073          	ecall
   12088:	842a                	mv	s0,a0
   1208a:	00055763          	bgez	a0,12098 <_fstat+0x24>
   1208e:	40800433          	neg	s0,s0
   12092:	2299                	jal	121d8 <__errno>
   12094:	c100                	sw	s0,0(a0)
   12096:	547d                	li	s0,-1
   12098:	8526                	mv	a0,s1
   1209a:	858a                	mv	a1,sp
   1209c:	20fd                	jal	1218a <_conv_stat>
   1209e:	40ba                	lw	ra,140(sp)
   120a0:	8522                	mv	a0,s0
   120a2:	442a                	lw	s0,136(sp)
   120a4:	449a                	lw	s1,132(sp)
   120a6:	6149                	add	sp,sp,144
   120a8:	8082                	ret

000120aa <_isatty>:
   120aa:	7159                	add	sp,sp,-112
   120ac:	002c                	add	a1,sp,8
   120ae:	d686                	sw	ra,108(sp)
   120b0:	37d1                	jal	12074 <_fstat>
   120b2:	57fd                	li	a5,-1
   120b4:	00f50863          	beq	a0,a5,120c4 <_isatty+0x1a>
   120b8:	4532                	lw	a0,12(sp)
   120ba:	8135                	srl	a0,a0,0xd
   120bc:	8905                	and	a0,a0,1
   120be:	50b6                	lw	ra,108(sp)
   120c0:	6165                	add	sp,sp,112
   120c2:	8082                	ret
   120c4:	4501                	li	a0,0
   120c6:	bfe5                	j	120be <_isatty+0x14>

000120c8 <_lseek>:
   120c8:	1141                	add	sp,sp,-16
   120ca:	c606                	sw	ra,12(sp)
   120cc:	c422                	sw	s0,8(sp)
   120ce:	03e00893          	li	a7,62
   120d2:	00000073          	ecall
   120d6:	842a                	mv	s0,a0
   120d8:	00055763          	bgez	a0,120e6 <_lseek+0x1e>
   120dc:	40800433          	neg	s0,s0
   120e0:	28e5                	jal	121d8 <__errno>
   120e2:	c100                	sw	s0,0(a0)
   120e4:	547d                	li	s0,-1
   120e6:	40b2                	lw	ra,12(sp)
   120e8:	8522                	mv	a0,s0
   120ea:	4422                	lw	s0,8(sp)
   120ec:	0141                	add	sp,sp,16
   120ee:	8082                	ret

000120f0 <_read>:
   120f0:	1141                	add	sp,sp,-16
   120f2:	c606                	sw	ra,12(sp)
   120f4:	c422                	sw	s0,8(sp)
   120f6:	03f00893          	li	a7,63
   120fa:	00000073          	ecall
   120fe:	842a                	mv	s0,a0
   12100:	00055763          	bgez	a0,1210e <_read+0x1e>
   12104:	40800433          	neg	s0,s0
   12108:	28c1                	jal	121d8 <__errno>
   1210a:	c100                	sw	s0,0(a0)
   1210c:	547d                	li	s0,-1
   1210e:	40b2                	lw	ra,12(sp)
   12110:	8522                	mv	a0,s0
   12112:	4422                	lw	s0,8(sp)
   12114:	0141                	add	sp,sp,16
   12116:	8082                	ret

00012118 <_sbrk>:
   12118:	ad01a703          	lw	a4,-1328(gp) # 242dc <heap_end.0>
   1211c:	1141                	add	sp,sp,-16
   1211e:	c606                	sw	ra,12(sp)
   12120:	87aa                	mv	a5,a0
   12122:	e315                	bnez	a4,12146 <_sbrk+0x2e>
   12124:	0d600893          	li	a7,214
   12128:	4501                	li	a0,0
   1212a:	00000073          	ecall
   1212e:	577d                	li	a4,-1
   12130:	00e51963          	bne	a0,a4,12142 <_sbrk+0x2a>
   12134:	2055                	jal	121d8 <__errno>
   12136:	47b1                	li	a5,12
   12138:	c11c                	sw	a5,0(a0)
   1213a:	557d                	li	a0,-1
   1213c:	40b2                	lw	ra,12(sp)
   1213e:	0141                	add	sp,sp,16
   12140:	8082                	ret
   12142:	aca1a823          	sw	a0,-1328(gp) # 242dc <heap_end.0>
   12146:	ad01a703          	lw	a4,-1328(gp) # 242dc <heap_end.0>
   1214a:	0d600893          	li	a7,214
   1214e:	97ba                	add	a5,a5,a4
   12150:	853e                	mv	a0,a5
   12152:	00000073          	ecall
   12156:	fcf51fe3          	bne	a0,a5,12134 <_sbrk+0x1c>
   1215a:	aca1a823          	sw	a0,-1328(gp) # 242dc <heap_end.0>
   1215e:	853a                	mv	a0,a4
   12160:	bff1                	j	1213c <_sbrk+0x24>

00012162 <_write>:
   12162:	1141                	add	sp,sp,-16
   12164:	c606                	sw	ra,12(sp)
   12166:	c422                	sw	s0,8(sp)
   12168:	04000893          	li	a7,64
   1216c:	00000073          	ecall
   12170:	842a                	mv	s0,a0
   12172:	00055763          	bgez	a0,12180 <_write+0x1e>
   12176:	40800433          	neg	s0,s0
   1217a:	28b9                	jal	121d8 <__errno>
   1217c:	c100                	sw	s0,0(a0)
   1217e:	547d                	li	s0,-1
   12180:	40b2                	lw	ra,12(sp)
   12182:	8522                	mv	a0,s0
   12184:	4422                	lw	s0,8(sp)
   12186:	0141                	add	sp,sp,16
   12188:	8082                	ret

0001218a <_conv_stat>:
   1218a:	419c                	lw	a5,0(a1)
   1218c:	45b8                	lw	a4,72(a1)
   1218e:	00f51023          	sh	a5,0(a0)
   12192:	459c                	lw	a5,8(a1)
   12194:	00f51123          	sh	a5,2(a0)
   12198:	499c                	lw	a5,16(a1)
   1219a:	c15c                	sw	a5,4(a0)
   1219c:	49dc                	lw	a5,20(a1)
   1219e:	00f51423          	sh	a5,8(a0)
   121a2:	4d9c                	lw	a5,24(a1)
   121a4:	00f51523          	sh	a5,10(a0)
   121a8:	4ddc                	lw	a5,28(a1)
   121aa:	00f51623          	sh	a5,12(a0)
   121ae:	519c                	lw	a5,32(a1)
   121b0:	00f51723          	sh	a5,14(a0)
   121b4:	599c                	lw	a5,48(a1)
   121b6:	c91c                	sw	a5,16(a0)
   121b8:	41bc                	lw	a5,64(a1)
   121ba:	c57c                	sw	a5,76(a0)
   121bc:	5d9c                	lw	a5,56(a1)
   121be:	c53c                	sw	a5,72(a0)
   121c0:	45fc                	lw	a5,76(a1)
   121c2:	cd18                	sw	a4,24(a0)
   121c4:	4db8                	lw	a4,88(a1)
   121c6:	cd5c                	sw	a5,28(a0)
   121c8:	4dfc                	lw	a5,92(a1)
   121ca:	d518                	sw	a4,40(a0)
   121cc:	55b8                	lw	a4,104(a1)
   121ce:	d55c                	sw	a5,44(a0)
   121d0:	55fc                	lw	a5,108(a1)
   121d2:	dd18                	sw	a4,56(a0)
   121d4:	dd5c                	sw	a5,60(a0)
   121d6:	8082                	ret

000121d8 <__errno>:
   121d8:	abc1a503          	lw	a0,-1348(gp) # 242c8 <_impure_ptr>
   121dc:	8082                	ret
